
test_sw_emb.elf:     file format elf32-littleriscv


Disassembly of section .vectors:

00000000 <_stack_start-0x108000>:
   0:	00000013          	nop
   4:	00000013          	nop
   8:	00000013          	nop
   c:	00000013          	nop
  10:	00000013          	nop
  14:	00000013          	nop
  18:	00000013          	nop
  1c:	00000013          	nop
  20:	00000013          	nop
  24:	00000013          	nop
  28:	00000013          	nop
  2c:	00000013          	nop
  30:	00000013          	nop
  34:	00000013          	nop
  38:	00000013          	nop
  3c:	00000013          	nop
  40:	00000013          	nop
  44:	00000013          	nop
  48:	00000013          	nop
  4c:	00000013          	nop
  50:	00000013          	nop
  54:	00000013          	nop
  58:	00000013          	nop
  5c:	0ba0006f          	j	116 <ISR_I2C_ASM>
  60:	0ca0006f          	j	12a <ISR_UART_ASM>
  64:	0da0006f          	j	13e <ISR_GPIO_ASM>
  68:	0ea0006f          	j	152 <ISR_SPIM0_ASM>
  6c:	0fa0006f          	j	166 <ISR_SPIM1_ASM>
  70:	11e0006f          	j	18e <ISR_TA_OVF_ASM>
  74:	1060006f          	j	17a <ISR_TA_CMP_ASM>
  78:	13e0006f          	j	1b6 <ISR_TB_OVF_ASM>
  7c:	1260006f          	j	1a2 <ISR_TB_CMP_ASM>
  80:	00c0006f          	j	8c <_stext>
  84:	1460006f          	j	1ca <illegal_insn_handler>
  88:	1560006f          	j	1de <ecall_insn_handler>

Disassembly of section .text:

0000008c <_stext>:
      8c:	30501073          	csrw	mtvec,zero
      90:	00000093          	li	ra,0
      94:	8106                	mv	sp,ra
      96:	8186                	mv	gp,ra
      98:	8206                	mv	tp,ra
      9a:	8286                	mv	t0,ra
      9c:	8306                	mv	t1,ra
      9e:	8386                	mv	t2,ra
      a0:	8406                	mv	s0,ra
      a2:	8486                	mv	s1,ra
      a4:	8506                	mv	a0,ra
      a6:	8586                	mv	a1,ra
      a8:	8606                	mv	a2,ra
      aa:	8686                	mv	a3,ra
      ac:	8706                	mv	a4,ra
      ae:	8786                	mv	a5,ra
      b0:	8806                	mv	a6,ra
      b2:	8886                	mv	a7,ra
      b4:	8906                	mv	s2,ra
      b6:	8986                	mv	s3,ra
      b8:	8a06                	mv	s4,ra
      ba:	8a86                	mv	s5,ra
      bc:	8b06                	mv	s6,ra
      be:	8b86                	mv	s7,ra
      c0:	8c06                	mv	s8,ra
      c2:	8c86                	mv	s9,ra
      c4:	8d06                	mv	s10,ra
      c6:	8d86                	mv	s11,ra
      c8:	8e06                	mv	t3,ra
      ca:	8e86                	mv	t4,ra
      cc:	8f06                	mv	t5,ra
      ce:	8f86                	mv	t6,ra
      d0:	00108117          	auipc	sp,0x108
      d4:	f3010113          	add	sp,sp,-208 # 108000 <_stack_start>

000000d8 <_start>:
      d8:	00100d17          	auipc	s10,0x100
      dc:	0c8d0d13          	add	s10,s10,200 # 1001a0 <_bss_end>
      e0:	00100d97          	auipc	s11,0x100
      e4:	0c0d8d93          	add	s11,s11,192 # 1001a0 <_bss_end>
      e8:	01bd5763          	bge	s10,s11,f6 <zero_loop_end>

000000ec <zero_loop>:
      ec:	000d2023          	sw	zero,0(s10)
      f0:	0d11                	add	s10,s10,4
      f2:	ffaddde3          	bge	s11,s10,ec <zero_loop>

000000f6 <zero_loop_end>:
      f6:	0fe020ef          	jal	21f4 <__DTOR_END__>

000000fa <main_entry>:
      fa:	4501                	li	a0,0
      fc:	4585                	li	a1,1
      fe:	728000ef          	jal	826 <uart_set_cfg>
     102:	4501                	li	a0,0
     104:	4581                	li	a1,0
     106:	27a000ef          	jal	380 <main>
     10a:	842a                	mv	s0,a0
     10c:	073000ef          	jal	97e <uart_wait_tx_done>
     110:	8522                	mv	a0,s0
     112:	08d000ef          	jal	99e <exit>

00000116 <ISR_I2C_ASM>:
     116:	711d                	add	sp,sp,-96
     118:	ce86                	sw	ra,92(sp)
     11a:	0d8000ef          	jal	1f2 <store_regs>
     11e:	00000097          	auipc	ra,0x0
     122:	11e08093          	add	ra,ra,286 # 23c <end_except>
     126:	2360106f          	j	135c <ISR_I2C>

0000012a <ISR_UART_ASM>:
     12a:	711d                	add	sp,sp,-96
     12c:	ce86                	sw	ra,92(sp)
     12e:	0c4000ef          	jal	1f2 <store_regs>
     132:	00000097          	auipc	ra,0x0
     136:	10a08093          	add	ra,ra,266 # 23c <end_except>
     13a:	22a0106f          	j	1364 <ISR_UART>

0000013e <ISR_GPIO_ASM>:
     13e:	711d                	add	sp,sp,-96
     140:	ce86                	sw	ra,92(sp)
     142:	0b0000ef          	jal	1f2 <store_regs>
     146:	00000097          	auipc	ra,0x0
     14a:	0f608093          	add	ra,ra,246 # 23c <end_except>
     14e:	21e0106f          	j	136c <ISR_GPIO>

00000152 <ISR_SPIM0_ASM>:
     152:	711d                	add	sp,sp,-96
     154:	ce86                	sw	ra,92(sp)
     156:	09c000ef          	jal	1f2 <store_regs>
     15a:	00000097          	auipc	ra,0x0
     15e:	0e208093          	add	ra,ra,226 # 23c <end_except>
     162:	2120106f          	j	1374 <ISR_SPIM0>

00000166 <ISR_SPIM1_ASM>:
     166:	711d                	add	sp,sp,-96
     168:	ce86                	sw	ra,92(sp)
     16a:	088000ef          	jal	1f2 <store_regs>
     16e:	00000097          	auipc	ra,0x0
     172:	0ce08093          	add	ra,ra,206 # 23c <end_except>
     176:	2060106f          	j	137c <ISR_SPIM1>

0000017a <ISR_TA_CMP_ASM>:
     17a:	711d                	add	sp,sp,-96
     17c:	ce86                	sw	ra,92(sp)
     17e:	074000ef          	jal	1f2 <store_regs>
     182:	00000097          	auipc	ra,0x0
     186:	0ba08093          	add	ra,ra,186 # 23c <end_except>
     18a:	2020106f          	j	138c <ISR_TA_CMP>

0000018e <ISR_TA_OVF_ASM>:
     18e:	711d                	add	sp,sp,-96
     190:	ce86                	sw	ra,92(sp)
     192:	060000ef          	jal	1f2 <store_regs>
     196:	00000097          	auipc	ra,0x0
     19a:	0a608093          	add	ra,ra,166 # 23c <end_except>
     19e:	1e60106f          	j	1384 <ISR_TA_OVF>

000001a2 <ISR_TB_CMP_ASM>:
     1a2:	711d                	add	sp,sp,-96
     1a4:	ce86                	sw	ra,92(sp)
     1a6:	04c000ef          	jal	1f2 <store_regs>
     1aa:	00000097          	auipc	ra,0x0
     1ae:	09208093          	add	ra,ra,146 # 23c <end_except>
     1b2:	1ea0106f          	j	139c <ISR_TB_CMP>

000001b6 <ISR_TB_OVF_ASM>:
     1b6:	711d                	add	sp,sp,-96
     1b8:	ce86                	sw	ra,92(sp)
     1ba:	038000ef          	jal	1f2 <store_regs>
     1be:	00000097          	auipc	ra,0x0
     1c2:	07e08093          	add	ra,ra,126 # 23c <end_except>
     1c6:	1ce0106f          	j	1394 <ISR_TB_OVF>

000001ca <illegal_insn_handler>:
     1ca:	711d                	add	sp,sp,-96
     1cc:	ce86                	sw	ra,92(sp)
     1ce:	024000ef          	jal	1f2 <store_regs>
     1d2:	00000097          	auipc	ra,0x0
     1d6:	06a08093          	add	ra,ra,106 # 23c <end_except>
     1da:	22c0106f          	j	1406 <illegal_insn_handler_c>

000001de <ecall_insn_handler>:
     1de:	711d                	add	sp,sp,-96
     1e0:	ce86                	sw	ra,92(sp)
     1e2:	010000ef          	jal	1f2 <store_regs>
     1e6:	00000097          	auipc	ra,0x0
     1ea:	05608093          	add	ra,ra,86 # 23c <end_except>
     1ee:	2200106f          	j	140e <ecall_insn_handler_c>

000001f2 <store_regs>:
     1f2:	c00e                	sw	gp,0(sp)
     1f4:	c212                	sw	tp,4(sp)
     1f6:	c416                	sw	t0,8(sp)
     1f8:	c61a                	sw	t1,12(sp)
     1fa:	c81e                	sw	t2,16(sp)
     1fc:	ca2a                	sw	a0,20(sp)
     1fe:	cc2e                	sw	a1,24(sp)
     200:	ce32                	sw	a2,28(sp)
     202:	d036                	sw	a3,32(sp)
     204:	d23a                	sw	a4,36(sp)
     206:	d43e                	sw	a5,40(sp)
     208:	d642                	sw	a6,44(sp)
     20a:	d846                	sw	a7,48(sp)
     20c:	da72                	sw	t3,52(sp)
     20e:	dc76                	sw	t4,56(sp)
     210:	de7a                	sw	t5,60(sp)
     212:	c0fe                	sw	t6,64(sp)
     214:	7b002e73          	csrr	t3,dcsr
     218:	7b102ef3          	csrr	t4,dpc
     21c:	7b202f73          	csrr	t5,dscratch0
     220:	c2f2                	sw	t3,68(sp)
     222:	c4f6                	sw	t4,72(sp)
     224:	c6fa                	sw	t5,76(sp)
     226:	7b402e73          	csrr	t3,0x7b4
     22a:	7b502ef3          	csrr	t4,0x7b5
     22e:	7b602f73          	csrr	t5,0x7b6
     232:	c8f2                	sw	t3,80(sp)
     234:	caf6                	sw	t4,84(sp)
     236:	ccfa                	sw	t5,88(sp)
     238:	00008067          	ret

0000023c <end_except>:
     23c:	4e46                	lw	t3,80(sp)
     23e:	4ed6                	lw	t4,84(sp)
     240:	4f66                	lw	t5,88(sp)
     242:	7b4e1073          	csrw	0x7b4,t3
     246:	7b5e9073          	csrw	0x7b5,t4
     24a:	7b6f1073          	csrw	0x7b6,t5
     24e:	4e16                	lw	t3,68(sp)
     250:	4ea6                	lw	t4,72(sp)
     252:	4f36                	lw	t5,76(sp)
     254:	7b0e1073          	csrw	dcsr,t3
     258:	7b1e9073          	csrw	dpc,t4
     25c:	7b2f1073          	csrw	dscratch0,t5
     260:	4182                	lw	gp,0(sp)
     262:	4212                	lw	tp,4(sp)
     264:	42a2                	lw	t0,8(sp)
     266:	4332                	lw	t1,12(sp)
     268:	43c2                	lw	t2,16(sp)
     26a:	4552                	lw	a0,20(sp)
     26c:	45e2                	lw	a1,24(sp)
     26e:	4672                	lw	a2,28(sp)
     270:	5682                	lw	a3,32(sp)
     272:	5712                	lw	a4,36(sp)
     274:	57a2                	lw	a5,40(sp)
     276:	5832                	lw	a6,44(sp)
     278:	58c2                	lw	a7,48(sp)
     27a:	5e52                	lw	t3,52(sp)
     27c:	5ee2                	lw	t4,56(sp)
     27e:	5f72                	lw	t5,60(sp)
     280:	4f86                	lw	t6,64(sp)
     282:	40f6                	lw	ra,92(sp)
     284:	6125                	add	sp,sp,96
     286:	30200073          	mret

0000028a <_fini>:
     28a:	8082                	ret

0000028c <hex_init>:
     28c:	1141                	add	sp,sp,-16
     28e:	c622                	sw	s0,12(sp)
     290:	0800                	add	s0,sp,16
     292:	1a1077b7          	lui	a5,0x1a107
     296:	0791                	add	a5,a5,4 # 1a107004 <_stack_start+0x19fff004>
     298:	4398                	lw	a4,0(a5)
     29a:	1a1077b7          	lui	a5,0x1a107
     29e:	0791                	add	a5,a5,4 # 1a107004 <_stack_start+0x19fff004>
     2a0:	10076713          	or	a4,a4,256
     2a4:	c398                	sw	a4,0(a5)
     2a6:	0001                	nop
     2a8:	4432                	lw	s0,12(sp)
     2aa:	0141                	add	sp,sp,16
     2ac:	8082                	ret

000002ae <hex_out>:
     2ae:	1101                	add	sp,sp,-32
     2b0:	ce22                	sw	s0,28(sp)
     2b2:	1000                	add	s0,sp,32
     2b4:	fea42623          	sw	a0,-20(s0)
     2b8:	1a1087b7          	lui	a5,0x1a108
     2bc:	fec42703          	lw	a4,-20(s0)
     2c0:	4318                	lw	a4,0(a4)
     2c2:	c398                	sw	a4,0(a5)
     2c4:	1a1087b7          	lui	a5,0x1a108
     2c8:	0791                	add	a5,a5,4 # 1a108004 <_stack_start+0x1a000004>
     2ca:	fec42703          	lw	a4,-20(s0)
     2ce:	4358                	lw	a4,4(a4)
     2d0:	c398                	sw	a4,0(a5)
     2d2:	0001                	nop
     2d4:	4472                	lw	s0,28(sp)
     2d6:	6105                	add	sp,sp,32
     2d8:	8082                	ret

000002da <temp_init>:
     2da:	1101                	add	sp,sp,-32
     2dc:	ce22                	sw	s0,28(sp)
     2de:	1000                	add	s0,sp,32
     2e0:	1a1077b7          	lui	a5,0x1a107
     2e4:	0791                	add	a5,a5,4 # 1a107004 <_stack_start+0x19fff004>
     2e6:	4398                	lw	a4,0(a5)
     2e8:	1a1077b7          	lui	a5,0x1a107
     2ec:	0791                	add	a5,a5,4 # 1a107004 <_stack_start+0x19fff004>
     2ee:	20076713          	or	a4,a4,512
     2f2:	c398                	sw	a4,0(a5)
     2f4:	004c57b7          	lui	a5,0x4c5
     2f8:	b4078793          	add	a5,a5,-1216 # 4c4b40 <_stack_start+0x3bcb40>
     2fc:	fef42623          	sw	a5,-20(s0)
     300:	a031                	j	30c <temp_init+0x32>
     302:	fec42783          	lw	a5,-20(s0)
     306:	17fd                	add	a5,a5,-1
     308:	fef42623          	sw	a5,-20(s0)
     30c:	fec42783          	lw	a5,-20(s0)
     310:	fef049e3          	bgtz	a5,302 <temp_init+0x28>
     314:	0001                	nop
     316:	0001                	nop
     318:	4472                	lw	s0,28(sp)
     31a:	6105                	add	sp,sp,32
     31c:	8082                	ret

0000031e <temp_get>:
     31e:	1101                	add	sp,sp,-32
     320:	ce06                	sw	ra,28(sp)
     322:	cc22                	sw	s0,24(sp)
     324:	1000                	add	s0,sp,32
     326:	1a1097b7          	lui	a5,0x1a109
     32a:	439c                	lw	a5,0(a5)
     32c:	fef42623          	sw	a5,-20(s0)
     330:	fec42783          	lw	a5,-20(s0)
     334:	87b1                	sra	a5,a5,0xc
     336:	8b85                	and	a5,a5,1
     338:	fef42423          	sw	a5,-24(s0)
     33c:	fec42703          	lw	a4,-20(s0)
     340:	6785                	lui	a5,0x1
     342:	17fd                	add	a5,a5,-1 # fff <qprint+0x227>
     344:	8ff9                	and	a5,a5,a4
     346:	fef42623          	sw	a5,-20(s0)
     34a:	fe842783          	lw	a5,-24(s0)
     34e:	c799                	beqz	a5,35c <temp_get+0x3e>
     350:	fec42703          	lw	a4,-20(s0)
     354:	77f9                	lui	a5,0xffffe
     356:	97ba                	add	a5,a5,a4
     358:	fef42623          	sw	a5,-20(s0)
     35c:	fec42503          	lw	a0,-20(s0)
     360:	525010ef          	jal	2084 <__floatsisf>
     364:	872a                	mv	a4,a0
     366:	001007b7          	lui	a5,0x100
     36a:	0447a583          	lw	a1,68(a5) # 100044 <__init_array_end+0x44>
     36e:	853a                	mv	a0,a4
     370:	0a8010ef          	jal	1418 <__divsf3>
     374:	87aa                	mv	a5,a0
     376:	853e                	mv	a0,a5
     378:	40f2                	lw	ra,28(sp)
     37a:	4462                	lw	s0,24(sp)
     37c:	6105                	add	sp,sp,32
     37e:	8082                	ret

00000380 <main>:
     380:	7139                	add	sp,sp,-64
     382:	de06                	sw	ra,60(sp)
     384:	dc22                	sw	s0,56(sp)
     386:	da26                	sw	s1,52(sp)
     388:	0080                	add	s0,sp,64
     38a:	030010ef          	jal	13ba <start_timer>
     38e:	45ed                	li	a1,27
     390:	4501                	li	a0,0
     392:	2951                	jal	826 <uart_set_cfg>
     394:	3de5                	jal	28c <hex_init>
     396:	3791                	jal	2da <temp_init>
     398:	001007b7          	lui	a5,0x100
     39c:	00078513          	mv	a0,a5
     3a0:	515000ef          	jal	10b4 <puts>
     3a4:	02faf7b7          	lui	a5,0x2faf
     3a8:	08078793          	add	a5,a5,128 # 2faf080 <_stack_start+0x2ea7080>
     3ac:	fef42223          	sw	a5,-28(s0)
     3b0:	4795                	li	a5,5
     3b2:	fef42023          	sw	a5,-32(s0)
     3b6:	fe042623          	sw	zero,-20(s0)
     3ba:	7eb000ef          	jal	13a4 <reset_timer>
     3be:	3785                	jal	31e <temp_get>
     3c0:	fea42423          	sw	a0,-24(s0)
     3c4:	4485                	li	s1,1
     3c6:	00000593          	li	a1,0
     3ca:	fe842503          	lw	a0,-24(s0)
     3ce:	37a010ef          	jal	1748 <__lesf2>
     3d2:	87aa                	mv	a5,a0
     3d4:	0007c363          	bltz	a5,3da <main+0x5a>
     3d8:	4481                	li	s1,0
     3da:	0ff4f793          	zext.b	a5,s1
     3de:	fcf42e23          	sw	a5,-36(s0)
     3e2:	fdc42783          	lw	a5,-36(s0)
     3e6:	cb81                	beqz	a5,3f6 <main+0x76>
     3e8:	fe842703          	lw	a4,-24(s0)
     3ec:	800007b7          	lui	a5,0x80000
     3f0:	8fb9                	xor	a5,a5,a4
     3f2:	fef42423          	sw	a5,-24(s0)
     3f6:	fe842503          	lw	a0,-24(s0)
     3fa:	41b010ef          	jal	2014 <__fixsfsi>
     3fe:	87aa                	mv	a5,a0
     400:	fcf42c23          	sw	a5,-40(s0)
     404:	fd842503          	lw	a0,-40(s0)
     408:	47d010ef          	jal	2084 <__floatsisf>
     40c:	87aa                	mv	a5,a0
     40e:	85be                	mv	a1,a5
     410:	fe842503          	lw	a0,-24(s0)
     414:	744010ef          	jal	1b58 <__subsf3>
     418:	87aa                	mv	a5,a0
     41a:	873e                	mv	a4,a5
     41c:	001007b7          	lui	a5,0x100
     420:	0487a583          	lw	a1,72(a5) # 100048 <__init_array_end+0x48>
     424:	853a                	mv	a0,a4
     426:	3fe010ef          	jal	1824 <__mulsf3>
     42a:	87aa                	mv	a5,a0
     42c:	853e                	mv	a0,a5
     42e:	3e7010ef          	jal	2014 <__fixsfsi>
     432:	87aa                	mv	a5,a0
     434:	fcf42a23          	sw	a5,-44(s0)
     438:	fd442703          	lw	a4,-44(s0)
     43c:	47a9                	li	a5,10
     43e:	02f767b3          	rem	a5,a4,a5
     442:	0ff7f793          	zext.b	a5,a5
     446:	03078793          	add	a5,a5,48
     44a:	0ff7f793          	zext.b	a5,a5
     44e:	fcf40623          	sb	a5,-52(s0)
     452:	fd442703          	lw	a4,-44(s0)
     456:	47a9                	li	a5,10
     458:	02f74733          	div	a4,a4,a5
     45c:	47a9                	li	a5,10
     45e:	02f767b3          	rem	a5,a4,a5
     462:	0ff7f793          	zext.b	a5,a5
     466:	03078793          	add	a5,a5,48
     46a:	0ff7f793          	zext.b	a5,a5
     46e:	fcf406a3          	sb	a5,-51(s0)
     472:	02e00793          	li	a5,46
     476:	fcf40723          	sb	a5,-50(s0)
     47a:	fd842703          	lw	a4,-40(s0)
     47e:	47a9                	li	a5,10
     480:	02f767b3          	rem	a5,a4,a5
     484:	0ff7f793          	zext.b	a5,a5
     488:	03078793          	add	a5,a5,48
     48c:	0ff7f793          	zext.b	a5,a5
     490:	fcf407a3          	sb	a5,-49(s0)
     494:	fd842703          	lw	a4,-40(s0)
     498:	47a9                	li	a5,10
     49a:	02f74733          	div	a4,a4,a5
     49e:	47a9                	li	a5,10
     4a0:	02f767b3          	rem	a5,a4,a5
     4a4:	0ff7f793          	zext.b	a5,a5
     4a8:	03078793          	add	a5,a5,48
     4ac:	0ff7f793          	zext.b	a5,a5
     4b0:	fcf40823          	sb	a5,-48(s0)
     4b4:	fd842703          	lw	a4,-40(s0)
     4b8:	06400793          	li	a5,100
     4bc:	02f74733          	div	a4,a4,a5
     4c0:	47a9                	li	a5,10
     4c2:	02f767b3          	rem	a5,a4,a5
     4c6:	0ff7f793          	zext.b	a5,a5
     4ca:	03078793          	add	a5,a5,48
     4ce:	0ff7f793          	zext.b	a5,a5
     4d2:	fcf408a3          	sb	a5,-47(s0)
     4d6:	fdc42783          	lw	a5,-36(s0)
     4da:	c781                	beqz	a5,4e2 <main+0x162>
     4dc:	02d00793          	li	a5,45
     4e0:	a019                	j	4e6 <main+0x166>
     4e2:	02000793          	li	a5,32
     4e6:	fcf40923          	sb	a5,-46(s0)
     4ea:	02000793          	li	a5,32
     4ee:	fcf409a3          	sb	a5,-45(s0)
     4f2:	fcc40793          	add	a5,s0,-52
     4f6:	853e                	mv	a0,a5
     4f8:	3b5d                	jal	2ae <hex_out>
     4fa:	fec42703          	lw	a4,-20(s0)
     4fe:	fe042783          	lw	a5,-32(s0)
     502:	02f767b3          	rem	a5,a4,a5
     506:	e785                	bnez	a5,52e <main+0x1ae>
     508:	fdc42783          	lw	a5,-36(s0)
     50c:	c781                	beqz	a5,514 <main+0x194>
     50e:	02d00793          	li	a5,45
     512:	a019                	j	518 <main+0x198>
     514:	02b00793          	li	a5,43
     518:	fd442683          	lw	a3,-44(s0)
     51c:	fd842603          	lw	a2,-40(s0)
     520:	85be                	mv	a1,a5
     522:	001007b7          	lui	a5,0x100
     526:	01878513          	add	a0,a5,24 # 100018 <__init_array_end+0x18>
     52a:	33b000ef          	jal	1064 <printf>
     52e:	fec42783          	lw	a5,-20(s0)
     532:	0785                	add	a5,a5,1
     534:	fef42623          	sw	a5,-20(s0)
     538:	0001                	nop
     53a:	6b1000ef          	jal	13ea <get_time>
     53e:	872a                	mv	a4,a0
     540:	fe442783          	lw	a5,-28(s0)
     544:	fef74be3          	blt	a4,a5,53a <main+0x1ba>
     548:	bd8d                	j	3ba <main+0x3a>

0000054a <set_pin_function>:
     54a:	7179                	add	sp,sp,-48
     54c:	d622                	sw	s0,44(sp)
     54e:	1800                	add	s0,sp,48
     550:	fca42e23          	sw	a0,-36(s0)
     554:	fcb42c23          	sw	a1,-40(s0)
     558:	1a1077b7          	lui	a5,0x1a107
     55c:	439c                	lw	a5,0(a5)
     55e:	fef42623          	sw	a5,-20(s0)
     562:	fdc42783          	lw	a5,-36(s0)
     566:	4705                	li	a4,1
     568:	00f717b3          	sll	a5,a4,a5
     56c:	fff7c713          	not	a4,a5
     570:	fec42783          	lw	a5,-20(s0)
     574:	8ff9                	and	a5,a5,a4
     576:	fef42623          	sw	a5,-20(s0)
     57a:	fdc42783          	lw	a5,-36(s0)
     57e:	fd842703          	lw	a4,-40(s0)
     582:	00f71733          	sll	a4,a4,a5
     586:	fec42783          	lw	a5,-20(s0)
     58a:	8fd9                	or	a5,a5,a4
     58c:	fef42623          	sw	a5,-20(s0)
     590:	1a1077b7          	lui	a5,0x1a107
     594:	fec42703          	lw	a4,-20(s0)
     598:	c398                	sw	a4,0(a5)
     59a:	0001                	nop
     59c:	5432                	lw	s0,44(sp)
     59e:	6145                	add	sp,sp,48
     5a0:	8082                	ret

000005a2 <get_pin_function>:
     5a2:	7179                	add	sp,sp,-48
     5a4:	d622                	sw	s0,44(sp)
     5a6:	1800                	add	s0,sp,48
     5a8:	fca42e23          	sw	a0,-36(s0)
     5ac:	1a1077b7          	lui	a5,0x1a107
     5b0:	439c                	lw	a5,0(a5)
     5b2:	fef42623          	sw	a5,-20(s0)
     5b6:	fec42703          	lw	a4,-20(s0)
     5ba:	fdc42783          	lw	a5,-36(s0)
     5be:	40f757b3          	sra	a5,a4,a5
     5c2:	8b85                	and	a5,a5,1
     5c4:	fef42623          	sw	a5,-20(s0)
     5c8:	fec42783          	lw	a5,-20(s0)
     5cc:	853e                	mv	a0,a5
     5ce:	5432                	lw	s0,44(sp)
     5d0:	6145                	add	sp,sp,48
     5d2:	8082                	ret

000005d4 <set_gpio_pin_direction>:
     5d4:	7179                	add	sp,sp,-48
     5d6:	d622                	sw	s0,44(sp)
     5d8:	1800                	add	s0,sp,48
     5da:	fca42e23          	sw	a0,-36(s0)
     5de:	fcb42c23          	sw	a1,-40(s0)
     5e2:	1a1017b7          	lui	a5,0x1a101
     5e6:	439c                	lw	a5,0(a5)
     5e8:	fef42623          	sw	a5,-20(s0)
     5ec:	fd842783          	lw	a5,-40(s0)
     5f0:	ef91                	bnez	a5,60c <set_gpio_pin_direction+0x38>
     5f2:	fdc42783          	lw	a5,-36(s0)
     5f6:	4705                	li	a4,1
     5f8:	00f717b3          	sll	a5,a4,a5
     5fc:	fff7c713          	not	a4,a5
     600:	fec42783          	lw	a5,-20(s0)
     604:	8ff9                	and	a5,a5,a4
     606:	fef42623          	sw	a5,-20(s0)
     60a:	a819                	j	620 <set_gpio_pin_direction+0x4c>
     60c:	fdc42783          	lw	a5,-36(s0)
     610:	4705                	li	a4,1
     612:	00f71733          	sll	a4,a4,a5
     616:	fec42783          	lw	a5,-20(s0)
     61a:	8fd9                	or	a5,a5,a4
     61c:	fef42623          	sw	a5,-20(s0)
     620:	1a1017b7          	lui	a5,0x1a101
     624:	fec42703          	lw	a4,-20(s0)
     628:	c398                	sw	a4,0(a5)
     62a:	0001                	nop
     62c:	5432                	lw	s0,44(sp)
     62e:	6145                	add	sp,sp,48
     630:	8082                	ret

00000632 <get_gpio_pin_direction>:
     632:	7179                	add	sp,sp,-48
     634:	d622                	sw	s0,44(sp)
     636:	1800                	add	s0,sp,48
     638:	fca42e23          	sw	a0,-36(s0)
     63c:	1a1017b7          	lui	a5,0x1a101
     640:	439c                	lw	a5,0(a5)
     642:	fef42623          	sw	a5,-20(s0)
     646:	fec42703          	lw	a4,-20(s0)
     64a:	fdc42783          	lw	a5,-36(s0)
     64e:	0786                	sll	a5,a5,0x1
     650:	40f757b3          	sra	a5,a4,a5
     654:	8b85                	and	a5,a5,1
     656:	fef42623          	sw	a5,-20(s0)
     65a:	fec42783          	lw	a5,-20(s0)
     65e:	853e                	mv	a0,a5
     660:	5432                	lw	s0,44(sp)
     662:	6145                	add	sp,sp,48
     664:	8082                	ret

00000666 <set_gpio_pin_value>:
     666:	7179                	add	sp,sp,-48
     668:	d622                	sw	s0,44(sp)
     66a:	1800                	add	s0,sp,48
     66c:	fca42e23          	sw	a0,-36(s0)
     670:	fcb42c23          	sw	a1,-40(s0)
     674:	1a1017b7          	lui	a5,0x1a101
     678:	07a1                	add	a5,a5,8 # 1a101008 <_stack_start+0x19ff9008>
     67a:	439c                	lw	a5,0(a5)
     67c:	fef42623          	sw	a5,-20(s0)
     680:	fd842783          	lw	a5,-40(s0)
     684:	ef91                	bnez	a5,6a0 <set_gpio_pin_value+0x3a>
     686:	fdc42783          	lw	a5,-36(s0)
     68a:	4705                	li	a4,1
     68c:	00f717b3          	sll	a5,a4,a5
     690:	fff7c713          	not	a4,a5
     694:	fec42783          	lw	a5,-20(s0)
     698:	8ff9                	and	a5,a5,a4
     69a:	fef42623          	sw	a5,-20(s0)
     69e:	a819                	j	6b4 <set_gpio_pin_value+0x4e>
     6a0:	fdc42783          	lw	a5,-36(s0)
     6a4:	4705                	li	a4,1
     6a6:	00f71733          	sll	a4,a4,a5
     6aa:	fec42783          	lw	a5,-20(s0)
     6ae:	8fd9                	or	a5,a5,a4
     6b0:	fef42623          	sw	a5,-20(s0)
     6b4:	1a1017b7          	lui	a5,0x1a101
     6b8:	07a1                	add	a5,a5,8 # 1a101008 <_stack_start+0x19ff9008>
     6ba:	fec42703          	lw	a4,-20(s0)
     6be:	c398                	sw	a4,0(a5)
     6c0:	0001                	nop
     6c2:	5432                	lw	s0,44(sp)
     6c4:	6145                	add	sp,sp,48
     6c6:	8082                	ret

000006c8 <get_gpio_pin_value>:
     6c8:	7179                	add	sp,sp,-48
     6ca:	d622                	sw	s0,44(sp)
     6cc:	1800                	add	s0,sp,48
     6ce:	fca42e23          	sw	a0,-36(s0)
     6d2:	1a1017b7          	lui	a5,0x1a101
     6d6:	0791                	add	a5,a5,4 # 1a101004 <_stack_start+0x19ff9004>
     6d8:	439c                	lw	a5,0(a5)
     6da:	fef42623          	sw	a5,-20(s0)
     6de:	fec42703          	lw	a4,-20(s0)
     6e2:	fdc42783          	lw	a5,-36(s0)
     6e6:	40f757b3          	sra	a5,a4,a5
     6ea:	8b85                	and	a5,a5,1
     6ec:	fef42623          	sw	a5,-20(s0)
     6f0:	fec42783          	lw	a5,-20(s0)
     6f4:	853e                	mv	a0,a5
     6f6:	5432                	lw	s0,44(sp)
     6f8:	6145                	add	sp,sp,48
     6fa:	8082                	ret

000006fc <set_gpio_pin_irq_en>:
     6fc:	7179                	add	sp,sp,-48
     6fe:	d622                	sw	s0,44(sp)
     700:	1800                	add	s0,sp,48
     702:	fca42e23          	sw	a0,-36(s0)
     706:	fcb42c23          	sw	a1,-40(s0)
     70a:	1a1017b7          	lui	a5,0x1a101
     70e:	07b1                	add	a5,a5,12 # 1a10100c <_stack_start+0x19ff900c>
     710:	439c                	lw	a5,0(a5)
     712:	fef42623          	sw	a5,-20(s0)
     716:	fd842783          	lw	a5,-40(s0)
     71a:	ef91                	bnez	a5,736 <set_gpio_pin_irq_en+0x3a>
     71c:	fdc42783          	lw	a5,-36(s0)
     720:	4705                	li	a4,1
     722:	00f717b3          	sll	a5,a4,a5
     726:	fff7c793          	not	a5,a5
     72a:	fec42703          	lw	a4,-20(s0)
     72e:	8ff9                	and	a5,a5,a4
     730:	fef42623          	sw	a5,-20(s0)
     734:	a819                	j	74a <set_gpio_pin_irq_en+0x4e>
     736:	fdc42783          	lw	a5,-36(s0)
     73a:	4705                	li	a4,1
     73c:	00f717b3          	sll	a5,a4,a5
     740:	fec42703          	lw	a4,-20(s0)
     744:	8fd9                	or	a5,a5,a4
     746:	fef42623          	sw	a5,-20(s0)
     74a:	1a1017b7          	lui	a5,0x1a101
     74e:	07b1                	add	a5,a5,12 # 1a10100c <_stack_start+0x19ff900c>
     750:	fec42703          	lw	a4,-20(s0)
     754:	c398                	sw	a4,0(a5)
     756:	0001                	nop
     758:	5432                	lw	s0,44(sp)
     75a:	6145                	add	sp,sp,48
     75c:	8082                	ret

0000075e <set_gpio_pin_irq_type>:
     75e:	7179                	add	sp,sp,-48
     760:	d622                	sw	s0,44(sp)
     762:	1800                	add	s0,sp,48
     764:	fca42e23          	sw	a0,-36(s0)
     768:	fcb42c23          	sw	a1,-40(s0)
     76c:	1a1017b7          	lui	a5,0x1a101
     770:	07c1                	add	a5,a5,16 # 1a101010 <_stack_start+0x19ff9010>
     772:	439c                	lw	a5,0(a5)
     774:	fef42623          	sw	a5,-20(s0)
     778:	1a1017b7          	lui	a5,0x1a101
     77c:	07d1                	add	a5,a5,20 # 1a101014 <_stack_start+0x19ff9014>
     77e:	439c                	lw	a5,0(a5)
     780:	fef42423          	sw	a5,-24(s0)
     784:	fd842783          	lw	a5,-40(s0)
     788:	8b85                	and	a5,a5,1
     78a:	ef91                	bnez	a5,7a6 <set_gpio_pin_irq_type+0x48>
     78c:	fdc42783          	lw	a5,-36(s0)
     790:	4705                	li	a4,1
     792:	00f717b3          	sll	a5,a4,a5
     796:	fff7c793          	not	a5,a5
     79a:	fec42703          	lw	a4,-20(s0)
     79e:	8ff9                	and	a5,a5,a4
     7a0:	fef42623          	sw	a5,-20(s0)
     7a4:	a819                	j	7ba <set_gpio_pin_irq_type+0x5c>
     7a6:	fdc42783          	lw	a5,-36(s0)
     7aa:	4705                	li	a4,1
     7ac:	00f717b3          	sll	a5,a4,a5
     7b0:	fec42703          	lw	a4,-20(s0)
     7b4:	8fd9                	or	a5,a5,a4
     7b6:	fef42623          	sw	a5,-20(s0)
     7ba:	fd842783          	lw	a5,-40(s0)
     7be:	8b89                	and	a5,a5,2
     7c0:	ef91                	bnez	a5,7dc <set_gpio_pin_irq_type+0x7e>
     7c2:	fdc42783          	lw	a5,-36(s0)
     7c6:	4705                	li	a4,1
     7c8:	00f717b3          	sll	a5,a4,a5
     7cc:	fff7c793          	not	a5,a5
     7d0:	fe842703          	lw	a4,-24(s0)
     7d4:	8ff9                	and	a5,a5,a4
     7d6:	fef42423          	sw	a5,-24(s0)
     7da:	a819                	j	7f0 <set_gpio_pin_irq_type+0x92>
     7dc:	fdc42783          	lw	a5,-36(s0)
     7e0:	4705                	li	a4,1
     7e2:	00f717b3          	sll	a5,a4,a5
     7e6:	fe842703          	lw	a4,-24(s0)
     7ea:	8fd9                	or	a5,a5,a4
     7ec:	fef42423          	sw	a5,-24(s0)
     7f0:	1a1017b7          	lui	a5,0x1a101
     7f4:	07c1                	add	a5,a5,16 # 1a101010 <_stack_start+0x19ff9010>
     7f6:	fec42703          	lw	a4,-20(s0)
     7fa:	c398                	sw	a4,0(a5)
     7fc:	1a1017b7          	lui	a5,0x1a101
     800:	07d1                	add	a5,a5,20 # 1a101014 <_stack_start+0x19ff9014>
     802:	fe842703          	lw	a4,-24(s0)
     806:	c398                	sw	a4,0(a5)
     808:	0001                	nop
     80a:	5432                	lw	s0,44(sp)
     80c:	6145                	add	sp,sp,48
     80e:	8082                	ret

00000810 <get_gpio_irq_status>:
     810:	1141                	add	sp,sp,-16
     812:	c622                	sw	s0,12(sp)
     814:	0800                	add	s0,sp,16
     816:	1a1017b7          	lui	a5,0x1a101
     81a:	07e1                	add	a5,a5,24 # 1a101018 <_stack_start+0x19ff9018>
     81c:	439c                	lw	a5,0(a5)
     81e:	853e                	mv	a0,a5
     820:	4432                	lw	s0,12(sp)
     822:	0141                	add	sp,sp,16
     824:	8082                	ret

00000826 <uart_set_cfg>:
     826:	1101                	add	sp,sp,-32
     828:	ce22                	sw	s0,28(sp)
     82a:	1000                	add	s0,sp,32
     82c:	fea42623          	sw	a0,-20(s0)
     830:	87ae                	mv	a5,a1
     832:	fef41523          	sh	a5,-22(s0)
     836:	1a1077b7          	lui	a5,0x1a107
     83a:	0791                	add	a5,a5,4 # 1a107004 <_stack_start+0x19fff004>
     83c:	4398                	lw	a4,0(a5)
     83e:	1a1077b7          	lui	a5,0x1a107
     842:	0791                	add	a5,a5,4 # 1a107004 <_stack_start+0x19fff004>
     844:	00276713          	or	a4,a4,2
     848:	c398                	sw	a4,0(a5)
     84a:	1a1007b7          	lui	a5,0x1a100
     84e:	07b1                	add	a5,a5,12 # 1a10000c <_stack_start+0x19ff800c>
     850:	08300713          	li	a4,131
     854:	c398                	sw	a4,0(a5)
     856:	fea45783          	lhu	a5,-22(s0)
     85a:	83a1                	srl	a5,a5,0x8
     85c:	07c2                	sll	a5,a5,0x10
     85e:	83c1                	srl	a5,a5,0x10
     860:	873e                	mv	a4,a5
     862:	1a1007b7          	lui	a5,0x1a100
     866:	0791                	add	a5,a5,4 # 1a100004 <_stack_start+0x19ff8004>
     868:	0ff77713          	zext.b	a4,a4
     86c:	c398                	sw	a4,0(a5)
     86e:	fea45703          	lhu	a4,-22(s0)
     872:	1a1007b7          	lui	a5,0x1a100
     876:	0ff77713          	zext.b	a4,a4
     87a:	c398                	sw	a4,0(a5)
     87c:	1a1007b7          	lui	a5,0x1a100
     880:	07a1                	add	a5,a5,8 # 1a100008 <_stack_start+0x19ff8008>
     882:	0a700713          	li	a4,167
     886:	c398                	sw	a4,0(a5)
     888:	1a1007b7          	lui	a5,0x1a100
     88c:	07b1                	add	a5,a5,12 # 1a10000c <_stack_start+0x19ff800c>
     88e:	470d                	li	a4,3
     890:	c398                	sw	a4,0(a5)
     892:	1a1007b7          	lui	a5,0x1a100
     896:	0791                	add	a5,a5,4 # 1a100004 <_stack_start+0x19ff8004>
     898:	439c                	lw	a5,0(a5)
     89a:	0f07f713          	and	a4,a5,240
     89e:	1a1007b7          	lui	a5,0x1a100
     8a2:	0791                	add	a5,a5,4 # 1a100004 <_stack_start+0x19ff8004>
     8a4:	00276713          	or	a4,a4,2
     8a8:	c398                	sw	a4,0(a5)
     8aa:	0001                	nop
     8ac:	4472                	lw	s0,28(sp)
     8ae:	6105                	add	sp,sp,32
     8b0:	8082                	ret

000008b2 <uart_send>:
     8b2:	7179                	add	sp,sp,-48
     8b4:	d622                	sw	s0,44(sp)
     8b6:	1800                	add	s0,sp,48
     8b8:	fca42e23          	sw	a0,-36(s0)
     8bc:	fcb42c23          	sw	a1,-40(s0)
     8c0:	a891                	j	914 <uart_send+0x62>
     8c2:	0001                	nop
     8c4:	1a1007b7          	lui	a5,0x1a100
     8c8:	07d1                	add	a5,a5,20 # 1a100014 <_stack_start+0x19ff8014>
     8ca:	439c                	lw	a5,0(a5)
     8cc:	0207f793          	and	a5,a5,32
     8d0:	dbf5                	beqz	a5,8c4 <uart_send+0x12>
     8d2:	fe042623          	sw	zero,-20(s0)
     8d6:	a035                	j	902 <uart_send+0x50>
     8d8:	fdc42783          	lw	a5,-36(s0)
     8dc:	00178713          	add	a4,a5,1
     8e0:	fce42e23          	sw	a4,-36(s0)
     8e4:	0007c703          	lbu	a4,0(a5)
     8e8:	1a1007b7          	lui	a5,0x1a100
     8ec:	c398                	sw	a4,0(a5)
     8ee:	fd842783          	lw	a5,-40(s0)
     8f2:	17fd                	add	a5,a5,-1 # 1a0fffff <_stack_start+0x19ff7fff>
     8f4:	fcf42c23          	sw	a5,-40(s0)
     8f8:	fec42783          	lw	a5,-20(s0)
     8fc:	0785                	add	a5,a5,1
     8fe:	fef42623          	sw	a5,-20(s0)
     902:	fec42703          	lw	a4,-20(s0)
     906:	03f00793          	li	a5,63
     90a:	00e7e563          	bltu	a5,a4,914 <uart_send+0x62>
     90e:	fd842783          	lw	a5,-40(s0)
     912:	f3f9                	bnez	a5,8d8 <uart_send+0x26>
     914:	fd842783          	lw	a5,-40(s0)
     918:	f7cd                	bnez	a5,8c2 <uart_send+0x10>
     91a:	0001                	nop
     91c:	0001                	nop
     91e:	5432                	lw	s0,44(sp)
     920:	6145                	add	sp,sp,48
     922:	8082                	ret

00000924 <uart_getchar>:
     924:	1141                	add	sp,sp,-16
     926:	c622                	sw	s0,12(sp)
     928:	0800                	add	s0,sp,16
     92a:	0001                	nop
     92c:	1a1007b7          	lui	a5,0x1a100
     930:	07d1                	add	a5,a5,20 # 1a100014 <_stack_start+0x19ff8014>
     932:	439c                	lw	a5,0(a5)
     934:	0017f713          	and	a4,a5,1
     938:	4785                	li	a5,1
     93a:	fef719e3          	bne	a4,a5,92c <uart_getchar+0x8>
     93e:	1a1007b7          	lui	a5,0x1a100
     942:	439c                	lw	a5,0(a5)
     944:	0ff7f793          	zext.b	a5,a5
     948:	853e                	mv	a0,a5
     94a:	4432                	lw	s0,12(sp)
     94c:	0141                	add	sp,sp,16
     94e:	8082                	ret

00000950 <uart_sendchar>:
     950:	1101                	add	sp,sp,-32
     952:	ce22                	sw	s0,28(sp)
     954:	1000                	add	s0,sp,32
     956:	87aa                	mv	a5,a0
     958:	fef407a3          	sb	a5,-17(s0)
     95c:	0001                	nop
     95e:	1a1007b7          	lui	a5,0x1a100
     962:	07d1                	add	a5,a5,20 # 1a100014 <_stack_start+0x19ff8014>
     964:	439c                	lw	a5,0(a5)
     966:	0207f793          	and	a5,a5,32
     96a:	dbf5                	beqz	a5,95e <uart_sendchar+0xe>
     96c:	1a1007b7          	lui	a5,0x1a100
     970:	fef44703          	lbu	a4,-17(s0)
     974:	c398                	sw	a4,0(a5)
     976:	0001                	nop
     978:	4472                	lw	s0,28(sp)
     97a:	6105                	add	sp,sp,32
     97c:	8082                	ret

0000097e <uart_wait_tx_done>:
     97e:	1141                	add	sp,sp,-16
     980:	c622                	sw	s0,12(sp)
     982:	0800                	add	s0,sp,16
     984:	0001                	nop
     986:	1a1007b7          	lui	a5,0x1a100
     98a:	07d1                	add	a5,a5,20 # 1a100014 <_stack_start+0x19ff8014>
     98c:	439c                	lw	a5,0(a5)
     98e:	0407f793          	and	a5,a5,64
     992:	dbf5                	beqz	a5,986 <uart_wait_tx_done+0x8>
     994:	0001                	nop
     996:	0001                	nop
     998:	4432                	lw	s0,12(sp)
     99a:	0141                	add	sp,sp,16
     99c:	8082                	ret

0000099e <exit>:
     99e:	1101                	add	sp,sp,-32
     9a0:	ce06                	sw	ra,28(sp)
     9a2:	cc22                	sw	s0,24(sp)
     9a4:	1000                	add	s0,sp,32
     9a6:	fea42623          	sw	a0,-20(s0)
     9aa:	fec42503          	lw	a0,-20(s0)
     9ae:	2011                	jal	9b2 <eoc>
     9b0:	a001                	j	9b0 <exit+0x12>

000009b2 <eoc>:
     9b2:	1101                	add	sp,sp,-32
     9b4:	ce06                	sw	ra,28(sp)
     9b6:	cc22                	sw	s0,24(sp)
     9b8:	1000                	add	s0,sp,32
     9ba:	fea42623          	sw	a0,-20(s0)
     9be:	fec42783          	lw	a5,-20(s0)
     9c2:	c799                	beqz	a5,9d0 <eoc+0x1e>
     9c4:	1a1077b7          	lui	a5,0x1a107
     9c8:	07d1                	add	a5,a5,20 # 1a107014 <_stack_start+0x19fff014>
     9ca:	4705                	li	a4,1
     9cc:	c398                	sw	a4,0(a5)
     9ce:	a031                	j	9da <eoc+0x28>
     9d0:	1a1077b7          	lui	a5,0x1a107
     9d4:	07d1                	add	a5,a5,20 # 1a107014 <_stack_start+0x19fff014>
     9d6:	0007a023          	sw	zero,0(a5)
     9da:	1a1077b7          	lui	a5,0x1a107
     9de:	0791                	add	a5,a5,4 # 1a107004 <_stack_start+0x19fff004>
     9e0:	4398                	lw	a4,0(a5)
     9e2:	1a1077b7          	lui	a5,0x1a107
     9e6:	0791                	add	a5,a5,4 # 1a107004 <_stack_start+0x19fff004>
     9e8:	00476713          	or	a4,a4,4
     9ec:	c398                	sw	a4,0(a5)
     9ee:	4585                	li	a1,1
     9f0:	4521                	li	a0,8
     9f2:	3ea1                	jal	54a <set_pin_function>
     9f4:	4585                	li	a1,1
     9f6:	4521                	li	a0,8
     9f8:	3ef1                	jal	5d4 <set_gpio_pin_direction>
     9fa:	4585                	li	a1,1
     9fc:	4521                	li	a0,8
     9fe:	31a5                	jal	666 <set_gpio_pin_value>
     a00:	0001                	nop
     a02:	40f2                	lw	ra,28(sp)
     a04:	4462                	lw	s0,24(sp)
     a06:	6105                	add	sp,sp,32
     a08:	8082                	ret

00000a0a <sleep_busy>:
     a0a:	7179                	add	sp,sp,-48
     a0c:	d622                	sw	s0,44(sp)
     a0e:	1800                	add	s0,sp,48
     a10:	fca42e23          	sw	a0,-36(s0)
     a14:	fe042623          	sw	zero,-20(s0)
     a18:	a039                	j	a26 <sleep_busy+0x1c>
     a1a:	0001                	nop
     a1c:	fec42783          	lw	a5,-20(s0)
     a20:	0785                	add	a5,a5,1
     a22:	fef42623          	sw	a5,-20(s0)
     a26:	fdc42783          	lw	a5,-36(s0)
     a2a:	fec42703          	lw	a4,-20(s0)
     a2e:	fef746e3          	blt	a4,a5,a1a <sleep_busy+0x10>
     a32:	0001                	nop
     a34:	0001                	nop
     a36:	5432                	lw	s0,44(sp)
     a38:	6145                	add	sp,sp,48
     a3a:	8082                	ret

00000a3c <divu10>:
     a3c:	7179                	add	sp,sp,-48
     a3e:	d622                	sw	s0,44(sp)
     a40:	1800                	add	s0,sp,48
     a42:	fca42e23          	sw	a0,-36(s0)
     a46:	fdc42783          	lw	a5,-36(s0)
     a4a:	0017d713          	srl	a4,a5,0x1
     a4e:	fdc42783          	lw	a5,-36(s0)
     a52:	8389                	srl	a5,a5,0x2
     a54:	97ba                	add	a5,a5,a4
     a56:	fef42623          	sw	a5,-20(s0)
     a5a:	fec42783          	lw	a5,-20(s0)
     a5e:	8391                	srl	a5,a5,0x4
     a60:	fec42703          	lw	a4,-20(s0)
     a64:	97ba                	add	a5,a5,a4
     a66:	fef42623          	sw	a5,-20(s0)
     a6a:	fec42783          	lw	a5,-20(s0)
     a6e:	83a1                	srl	a5,a5,0x8
     a70:	fec42703          	lw	a4,-20(s0)
     a74:	97ba                	add	a5,a5,a4
     a76:	fef42623          	sw	a5,-20(s0)
     a7a:	fec42783          	lw	a5,-20(s0)
     a7e:	83c1                	srl	a5,a5,0x10
     a80:	fec42703          	lw	a4,-20(s0)
     a84:	97ba                	add	a5,a5,a4
     a86:	fef42623          	sw	a5,-20(s0)
     a8a:	fec42783          	lw	a5,-20(s0)
     a8e:	838d                	srl	a5,a5,0x3
     a90:	fef42623          	sw	a5,-20(s0)
     a94:	fec42703          	lw	a4,-20(s0)
     a98:	87ba                	mv	a5,a4
     a9a:	078a                	sll	a5,a5,0x2
     a9c:	97ba                	add	a5,a5,a4
     a9e:	0786                	sll	a5,a5,0x1
     aa0:	873e                	mv	a4,a5
     aa2:	fdc42783          	lw	a5,-36(s0)
     aa6:	8f99                	sub	a5,a5,a4
     aa8:	fef42423          	sw	a5,-24(s0)
     aac:	fe842783          	lw	a5,-24(s0)
     ab0:	0799                	add	a5,a5,6
     ab2:	0047d713          	srl	a4,a5,0x4
     ab6:	fec42783          	lw	a5,-20(s0)
     aba:	97ba                	add	a5,a5,a4
     abc:	853e                	mv	a0,a5
     abe:	5432                	lw	s0,44(sp)
     ac0:	6145                	add	sp,sp,48
     ac2:	8082                	ret

00000ac4 <remu10>:
     ac4:	1101                	add	sp,sp,-32
     ac6:	ce22                	sw	s0,28(sp)
     ac8:	1000                	add	s0,sp,32
     aca:	fea42623          	sw	a0,-20(s0)
     ace:	fec42703          	lw	a4,-20(s0)
     ad2:	1999a7b7          	lui	a5,0x1999a
     ad6:	99978793          	add	a5,a5,-1639 # 19999999 <_stack_start+0x19891999>
     ada:	02f70733          	mul	a4,a4,a5
     ade:	fec42783          	lw	a5,-20(s0)
     ae2:	8385                	srl	a5,a5,0x1
     ae4:	973e                	add	a4,a4,a5
     ae6:	fec42783          	lw	a5,-20(s0)
     aea:	838d                	srl	a5,a5,0x3
     aec:	97ba                	add	a5,a5,a4
     aee:	83f1                	srl	a5,a5,0x1c
     af0:	fef42623          	sw	a5,-20(s0)
     af4:	001007b7          	lui	a5,0x100
     af8:	19078713          	add	a4,a5,400 # 100190 <remu10_table>
     afc:	fec42783          	lw	a5,-20(s0)
     b00:	97ba                	add	a5,a5,a4
     b02:	0007c783          	lbu	a5,0(a5)
     b06:	853e                	mv	a0,a5
     b08:	4472                	lw	s0,28(sp)
     b0a:	6105                	add	sp,sp,32
     b0c:	8082                	ret

00000b0e <putchar>:
     b0e:	1101                	add	sp,sp,-32
     b10:	ce06                	sw	ra,28(sp)
     b12:	cc22                	sw	s0,24(sp)
     b14:	1000                	add	s0,sp,32
     b16:	fea42623          	sw	a0,-20(s0)
     b1a:	fec42783          	lw	a5,-20(s0)
     b1e:	0ff7f793          	zext.b	a5,a5
     b22:	853e                	mv	a0,a5
     b24:	3535                	jal	950 <uart_sendchar>
     b26:	fec42783          	lw	a5,-20(s0)
     b2a:	853e                	mv	a0,a5
     b2c:	40f2                	lw	ra,28(sp)
     b2e:	4462                	lw	s0,24(sp)
     b30:	6105                	add	sp,sp,32
     b32:	8082                	ret

00000b34 <qprintchar>:
     b34:	1101                	add	sp,sp,-32
     b36:	ce06                	sw	ra,28(sp)
     b38:	cc22                	sw	s0,24(sp)
     b3a:	1000                	add	s0,sp,32
     b3c:	fea42623          	sw	a0,-20(s0)
     b40:	feb42423          	sw	a1,-24(s0)
     b44:	fec42783          	lw	a5,-20(s0)
     b48:	c39d                	beqz	a5,b6e <qprintchar+0x3a>
     b4a:	fec42783          	lw	a5,-20(s0)
     b4e:	439c                	lw	a5,0(a5)
     b50:	fe842703          	lw	a4,-24(s0)
     b54:	0ff77713          	zext.b	a4,a4
     b58:	00e78023          	sb	a4,0(a5)
     b5c:	fec42783          	lw	a5,-20(s0)
     b60:	439c                	lw	a5,0(a5)
     b62:	00178713          	add	a4,a5,1
     b66:	fec42783          	lw	a5,-20(s0)
     b6a:	c398                	sw	a4,0(a5)
     b6c:	a039                	j	b7a <qprintchar+0x46>
     b6e:	fe842783          	lw	a5,-24(s0)
     b72:	0ff7f793          	zext.b	a5,a5
     b76:	853e                	mv	a0,a5
     b78:	3f59                	jal	b0e <putchar>
     b7a:	0001                	nop
     b7c:	40f2                	lw	ra,28(sp)
     b7e:	4462                	lw	s0,24(sp)
     b80:	6105                	add	sp,sp,32
     b82:	8082                	ret

00000b84 <qprints>:
     b84:	7179                	add	sp,sp,-48
     b86:	d606                	sw	ra,44(sp)
     b88:	d422                	sw	s0,40(sp)
     b8a:	d226                	sw	s1,36(sp)
     b8c:	d04a                	sw	s2,32(sp)
     b8e:	ce4e                	sw	s3,28(sp)
     b90:	cc52                	sw	s4,24(sp)
     b92:	1800                	add	s0,sp,48
     b94:	fca42e23          	sw	a0,-36(s0)
     b98:	fcb42c23          	sw	a1,-40(s0)
     b9c:	fcc42a23          	sw	a2,-44(s0)
     ba0:	fcd42823          	sw	a3,-48(s0)
     ba4:	4481                	li	s1,0
     ba6:	02000a13          	li	s4,32
     baa:	fd442783          	lw	a5,-44(s0)
     bae:	02f05e63          	blez	a5,bea <qprints+0x66>
     bb2:	4901                	li	s2,0
     bb4:	fd842983          	lw	s3,-40(s0)
     bb8:	a019                	j	bbe <qprints+0x3a>
     bba:	0905                	add	s2,s2,1
     bbc:	0985                	add	s3,s3,1
     bbe:	0009c783          	lbu	a5,0(s3)
     bc2:	ffe5                	bnez	a5,bba <qprints+0x36>
     bc4:	fd442783          	lw	a5,-44(s0)
     bc8:	00f94563          	blt	s2,a5,bd2 <qprints+0x4e>
     bcc:	fc042a23          	sw	zero,-44(s0)
     bd0:	a039                	j	bde <qprints+0x5a>
     bd2:	fd442783          	lw	a5,-44(s0)
     bd6:	412787b3          	sub	a5,a5,s2
     bda:	fcf42a23          	sw	a5,-44(s0)
     bde:	fd042783          	lw	a5,-48(s0)
     be2:	8b89                	and	a5,a5,2
     be4:	c399                	beqz	a5,bea <qprints+0x66>
     be6:	03000a13          	li	s4,48
     bea:	fd042783          	lw	a5,-48(s0)
     bee:	8b85                	and	a5,a5,1
     bf0:	ef9d                	bnez	a5,c2e <qprints+0xaa>
     bf2:	a819                	j	c08 <qprints+0x84>
     bf4:	85d2                	mv	a1,s4
     bf6:	fdc42503          	lw	a0,-36(s0)
     bfa:	3f2d                	jal	b34 <qprintchar>
     bfc:	0485                	add	s1,s1,1
     bfe:	fd442783          	lw	a5,-44(s0)
     c02:	17fd                	add	a5,a5,-1
     c04:	fcf42a23          	sw	a5,-44(s0)
     c08:	fd442783          	lw	a5,-44(s0)
     c0c:	fef044e3          	bgtz	a5,bf4 <qprints+0x70>
     c10:	a839                	j	c2e <qprints+0xaa>
     c12:	fd842783          	lw	a5,-40(s0)
     c16:	0007c783          	lbu	a5,0(a5)
     c1a:	85be                	mv	a1,a5
     c1c:	fdc42503          	lw	a0,-36(s0)
     c20:	3f11                	jal	b34 <qprintchar>
     c22:	0485                	add	s1,s1,1
     c24:	fd842783          	lw	a5,-40(s0)
     c28:	0785                	add	a5,a5,1
     c2a:	fcf42c23          	sw	a5,-40(s0)
     c2e:	fd842783          	lw	a5,-40(s0)
     c32:	0007c783          	lbu	a5,0(a5)
     c36:	fff1                	bnez	a5,c12 <qprints+0x8e>
     c38:	a819                	j	c4e <qprints+0xca>
     c3a:	85d2                	mv	a1,s4
     c3c:	fdc42503          	lw	a0,-36(s0)
     c40:	3dd5                	jal	b34 <qprintchar>
     c42:	0485                	add	s1,s1,1
     c44:	fd442783          	lw	a5,-44(s0)
     c48:	17fd                	add	a5,a5,-1
     c4a:	fcf42a23          	sw	a5,-44(s0)
     c4e:	fd442783          	lw	a5,-44(s0)
     c52:	fef044e3          	bgtz	a5,c3a <qprints+0xb6>
     c56:	87a6                	mv	a5,s1
     c58:	853e                	mv	a0,a5
     c5a:	50b2                	lw	ra,44(sp)
     c5c:	5422                	lw	s0,40(sp)
     c5e:	5492                	lw	s1,36(sp)
     c60:	5902                	lw	s2,32(sp)
     c62:	49f2                	lw	s3,28(sp)
     c64:	4a62                	lw	s4,24(sp)
     c66:	6145                	add	sp,sp,48
     c68:	8082                	ret

00000c6a <qprinti>:
     c6a:	7159                	add	sp,sp,-112
     c6c:	d686                	sw	ra,108(sp)
     c6e:	d4a2                	sw	s0,104(sp)
     c70:	d2a6                	sw	s1,100(sp)
     c72:	d0ca                	sw	s2,96(sp)
     c74:	cece                	sw	s3,92(sp)
     c76:	1880                	add	s0,sp,112
     c78:	faa42623          	sw	a0,-84(s0)
     c7c:	fab42423          	sw	a1,-88(s0)
     c80:	fac42223          	sw	a2,-92(s0)
     c84:	fad42023          	sw	a3,-96(s0)
     c88:	f8e42e23          	sw	a4,-100(s0)
     c8c:	f8f42c23          	sw	a5,-104(s0)
     c90:	87c2                	mv	a5,a6
     c92:	f8f40ba3          	sb	a5,-105(s0)
     c96:	4981                	li	s3,0
     c98:	4901                	li	s2,0
     c9a:	fa842783          	lw	a5,-88(s0)
     c9e:	fcf42e23          	sw	a5,-36(s0)
     ca2:	fa842783          	lw	a5,-88(s0)
     ca6:	e39d                	bnez	a5,ccc <qprinti+0x62>
     ca8:	03000793          	li	a5,48
     cac:	faf40c23          	sb	a5,-72(s0)
     cb0:	fa040ca3          	sb	zero,-71(s0)
     cb4:	fb840793          	add	a5,s0,-72
     cb8:	f9842683          	lw	a3,-104(s0)
     cbc:	f9c42603          	lw	a2,-100(s0)
     cc0:	85be                	mv	a1,a5
     cc2:	fac42503          	lw	a0,-84(s0)
     cc6:	3d7d                	jal	b84 <qprints>
     cc8:	87aa                	mv	a5,a0
     cca:	a8fd                	j	dc8 <qprinti+0x15e>
     ccc:	fa042783          	lw	a5,-96(s0)
     cd0:	c38d                	beqz	a5,cf2 <qprinti+0x88>
     cd2:	fa442703          	lw	a4,-92(s0)
     cd6:	47a9                	li	a5,10
     cd8:	00f71d63          	bne	a4,a5,cf2 <qprinti+0x88>
     cdc:	fa842783          	lw	a5,-88(s0)
     ce0:	0007d963          	bgez	a5,cf2 <qprinti+0x88>
     ce4:	4985                	li	s3,1
     ce6:	fa842783          	lw	a5,-88(s0)
     cea:	40f007b3          	neg	a5,a5
     cee:	fcf42e23          	sw	a5,-36(s0)
     cf2:	fb840493          	add	s1,s0,-72
     cf6:	04fd                	add	s1,s1,31
     cf8:	00048023          	sb	zero,0(s1)
     cfc:	fa442703          	lw	a4,-92(s0)
     d00:	47c1                	li	a5,16
     d02:	06f71c63          	bne	a4,a5,d7a <qprinti+0x110>
     d06:	a0a1                	j	d4e <qprinti+0xe4>
     d08:	fdc42783          	lw	a5,-36(s0)
     d0c:	8bbd                	and	a5,a5,15
     d0e:	fcf42c23          	sw	a5,-40(s0)
     d12:	fd842703          	lw	a4,-40(s0)
     d16:	47a5                	li	a5,9
     d18:	00e7db63          	bge	a5,a4,d2e <qprinti+0xc4>
     d1c:	f9744783          	lbu	a5,-105(s0)
     d20:	fc678793          	add	a5,a5,-58
     d24:	fd842703          	lw	a4,-40(s0)
     d28:	97ba                	add	a5,a5,a4
     d2a:	fcf42c23          	sw	a5,-40(s0)
     d2e:	fd842783          	lw	a5,-40(s0)
     d32:	0ff7f793          	zext.b	a5,a5
     d36:	14fd                	add	s1,s1,-1
     d38:	03078793          	add	a5,a5,48
     d3c:	0ff7f793          	zext.b	a5,a5
     d40:	00f48023          	sb	a5,0(s1)
     d44:	fdc42783          	lw	a5,-36(s0)
     d48:	8391                	srl	a5,a5,0x4
     d4a:	fcf42e23          	sw	a5,-36(s0)
     d4e:	fdc42783          	lw	a5,-36(s0)
     d52:	fbdd                	bnez	a5,d08 <qprinti+0x9e>
     d54:	a035                	j	d80 <qprinti+0x116>
     d56:	fdc42503          	lw	a0,-36(s0)
     d5a:	33ad                	jal	ac4 <remu10>
     d5c:	87aa                	mv	a5,a0
     d5e:	0ff7f793          	zext.b	a5,a5
     d62:	14fd                	add	s1,s1,-1
     d64:	03078793          	add	a5,a5,48
     d68:	0ff7f793          	zext.b	a5,a5
     d6c:	00f48023          	sb	a5,0(s1)
     d70:	fdc42503          	lw	a0,-36(s0)
     d74:	31e1                	jal	a3c <divu10>
     d76:	fca42e23          	sw	a0,-36(s0)
     d7a:	fdc42783          	lw	a5,-36(s0)
     d7e:	ffe1                	bnez	a5,d56 <qprinti+0xec>
     d80:	02098a63          	beqz	s3,db4 <qprinti+0x14a>
     d84:	f9c42783          	lw	a5,-100(s0)
     d88:	c38d                	beqz	a5,daa <qprinti+0x140>
     d8a:	f9842783          	lw	a5,-104(s0)
     d8e:	8b89                	and	a5,a5,2
     d90:	cf89                	beqz	a5,daa <qprinti+0x140>
     d92:	02d00593          	li	a1,45
     d96:	fac42503          	lw	a0,-84(s0)
     d9a:	3b69                	jal	b34 <qprintchar>
     d9c:	0905                	add	s2,s2,1
     d9e:	f9c42783          	lw	a5,-100(s0)
     da2:	17fd                	add	a5,a5,-1
     da4:	f8f42e23          	sw	a5,-100(s0)
     da8:	a031                	j	db4 <qprinti+0x14a>
     daa:	14fd                	add	s1,s1,-1
     dac:	02d00793          	li	a5,45
     db0:	00f48023          	sb	a5,0(s1)
     db4:	f9842683          	lw	a3,-104(s0)
     db8:	f9c42603          	lw	a2,-100(s0)
     dbc:	85a6                	mv	a1,s1
     dbe:	fac42503          	lw	a0,-84(s0)
     dc2:	33c9                	jal	b84 <qprints>
     dc4:	87aa                	mv	a5,a0
     dc6:	97ca                	add	a5,a5,s2
     dc8:	853e                	mv	a0,a5
     dca:	50b6                	lw	ra,108(sp)
     dcc:	5426                	lw	s0,104(sp)
     dce:	5496                	lw	s1,100(sp)
     dd0:	5906                	lw	s2,96(sp)
     dd2:	49f6                	lw	s3,92(sp)
     dd4:	6165                	add	sp,sp,112
     dd6:	8082                	ret

00000dd8 <qprint>:
     dd8:	7139                	add	sp,sp,-64
     dda:	de06                	sw	ra,60(sp)
     ddc:	dc22                	sw	s0,56(sp)
     dde:	da26                	sw	s1,52(sp)
     de0:	d84a                	sw	s2,48(sp)
     de2:	d64e                	sw	s3,44(sp)
     de4:	0080                	add	s0,sp,64
     de6:	fca42623          	sw	a0,-52(s0)
     dea:	fcb42423          	sw	a1,-56(s0)
     dee:	fcc42223          	sw	a2,-60(s0)
     df2:	4481                	li	s1,0
     df4:	ac3d                	j	1032 <_min_stack+0x32>
     df6:	fc842783          	lw	a5,-56(s0)
     dfa:	0007c703          	lbu	a4,0(a5)
     dfe:	02500793          	li	a5,37
     e02:	20f71763          	bne	a4,a5,1010 <_min_stack+0x10>
     e06:	fc842783          	lw	a5,-56(s0)
     e0a:	0785                	add	a5,a5,1
     e0c:	fcf42423          	sw	a5,-56(s0)
     e10:	4981                	li	s3,0
     e12:	894e                	mv	s2,s3
     e14:	fc842783          	lw	a5,-56(s0)
     e18:	0007c783          	lbu	a5,0(a5)
     e1c:	22078263          	beqz	a5,1040 <_min_stack+0x40>
     e20:	fc842783          	lw	a5,-56(s0)
     e24:	0007c703          	lbu	a4,0(a5)
     e28:	02500793          	li	a5,37
     e2c:	1ef70463          	beq	a4,a5,1014 <_min_stack+0x14>
     e30:	fc842783          	lw	a5,-56(s0)
     e34:	0007c703          	lbu	a4,0(a5)
     e38:	02d00793          	li	a5,45
     e3c:	02f71063          	bne	a4,a5,e5c <qprint+0x84>
     e40:	fc842783          	lw	a5,-56(s0)
     e44:	0785                	add	a5,a5,1
     e46:	fcf42423          	sw	a5,-56(s0)
     e4a:	4985                	li	s3,1
     e4c:	a801                	j	e5c <qprint+0x84>
     e4e:	fc842783          	lw	a5,-56(s0)
     e52:	0785                	add	a5,a5,1
     e54:	fcf42423          	sw	a5,-56(s0)
     e58:	0029e993          	or	s3,s3,2
     e5c:	fc842783          	lw	a5,-56(s0)
     e60:	0007c703          	lbu	a4,0(a5)
     e64:	03000793          	li	a5,48
     e68:	fef703e3          	beq	a4,a5,e4e <qprint+0x76>
     e6c:	a015                	j	e90 <qprint+0xb8>
     e6e:	87ca                	mv	a5,s2
     e70:	078a                	sll	a5,a5,0x2
     e72:	97ca                	add	a5,a5,s2
     e74:	0786                	sll	a5,a5,0x1
     e76:	893e                	mv	s2,a5
     e78:	fc842783          	lw	a5,-56(s0)
     e7c:	0007c783          	lbu	a5,0(a5)
     e80:	fd078793          	add	a5,a5,-48
     e84:	993e                	add	s2,s2,a5
     e86:	fc842783          	lw	a5,-56(s0)
     e8a:	0785                	add	a5,a5,1
     e8c:	fcf42423          	sw	a5,-56(s0)
     e90:	fc842783          	lw	a5,-56(s0)
     e94:	0007c703          	lbu	a4,0(a5)
     e98:	02f00793          	li	a5,47
     e9c:	00e7fa63          	bgeu	a5,a4,eb0 <qprint+0xd8>
     ea0:	fc842783          	lw	a5,-56(s0)
     ea4:	0007c703          	lbu	a4,0(a5)
     ea8:	03900793          	li	a5,57
     eac:	fce7f1e3          	bgeu	a5,a4,e6e <qprint+0x96>
     eb0:	fc842783          	lw	a5,-56(s0)
     eb4:	0007c703          	lbu	a4,0(a5)
     eb8:	07300793          	li	a5,115
     ebc:	02f71b63          	bne	a4,a5,ef2 <qprint+0x11a>
     ec0:	fc442783          	lw	a5,-60(s0)
     ec4:	00478713          	add	a4,a5,4
     ec8:	fce42223          	sw	a4,-60(s0)
     ecc:	0007a083          	lw	ra,0(a5)
     ed0:	00008463          	beqz	ra,ed8 <qprint+0x100>
     ed4:	8786                	mv	a5,ra
     ed6:	a029                	j	ee0 <qprint+0x108>
     ed8:	001007b7          	lui	a5,0x100
     edc:	04c78793          	add	a5,a5,76 # 10004c <__init_array_end+0x4c>
     ee0:	86ce                	mv	a3,s3
     ee2:	864a                	mv	a2,s2
     ee4:	85be                	mv	a1,a5
     ee6:	fcc42503          	lw	a0,-52(s0)
     eea:	3969                	jal	b84 <qprints>
     eec:	87aa                	mv	a5,a0
     eee:	94be                	add	s1,s1,a5
     ef0:	aa25                	j	1028 <_min_stack+0x28>
     ef2:	fc842783          	lw	a5,-56(s0)
     ef6:	0007c703          	lbu	a4,0(a5)
     efa:	06400793          	li	a5,100
     efe:	02f71563          	bne	a4,a5,f28 <qprint+0x150>
     f02:	fc442783          	lw	a5,-60(s0)
     f06:	00478713          	add	a4,a5,4
     f0a:	fce42223          	sw	a4,-60(s0)
     f0e:	438c                	lw	a1,0(a5)
     f10:	06100813          	li	a6,97
     f14:	87ce                	mv	a5,s3
     f16:	874a                	mv	a4,s2
     f18:	4685                	li	a3,1
     f1a:	4629                	li	a2,10
     f1c:	fcc42503          	lw	a0,-52(s0)
     f20:	33a9                	jal	c6a <qprinti>
     f22:	87aa                	mv	a5,a0
     f24:	94be                	add	s1,s1,a5
     f26:	a209                	j	1028 <_min_stack+0x28>
     f28:	fc842783          	lw	a5,-56(s0)
     f2c:	0007c703          	lbu	a4,0(a5)
     f30:	07500793          	li	a5,117
     f34:	02f71663          	bne	a4,a5,f60 <qprint+0x188>
     f38:	fc442783          	lw	a5,-60(s0)
     f3c:	00478713          	add	a4,a5,4
     f40:	fce42223          	sw	a4,-60(s0)
     f44:	439c                	lw	a5,0(a5)
     f46:	85be                	mv	a1,a5
     f48:	06100813          	li	a6,97
     f4c:	87ce                	mv	a5,s3
     f4e:	874a                	mv	a4,s2
     f50:	4681                	li	a3,0
     f52:	4629                	li	a2,10
     f54:	fcc42503          	lw	a0,-52(s0)
     f58:	3b09                	jal	c6a <qprinti>
     f5a:	87aa                	mv	a5,a0
     f5c:	94be                	add	s1,s1,a5
     f5e:	a0e9                	j	1028 <_min_stack+0x28>
     f60:	fc842783          	lw	a5,-56(s0)
     f64:	0007c703          	lbu	a4,0(a5)
     f68:	07800793          	li	a5,120
     f6c:	02f71663          	bne	a4,a5,f98 <qprint+0x1c0>
     f70:	fc442783          	lw	a5,-60(s0)
     f74:	00478713          	add	a4,a5,4
     f78:	fce42223          	sw	a4,-60(s0)
     f7c:	439c                	lw	a5,0(a5)
     f7e:	85be                	mv	a1,a5
     f80:	06100813          	li	a6,97
     f84:	87ce                	mv	a5,s3
     f86:	874a                	mv	a4,s2
     f88:	4681                	li	a3,0
     f8a:	4641                	li	a2,16
     f8c:	fcc42503          	lw	a0,-52(s0)
     f90:	39e9                	jal	c6a <qprinti>
     f92:	87aa                	mv	a5,a0
     f94:	94be                	add	s1,s1,a5
     f96:	a849                	j	1028 <_min_stack+0x28>
     f98:	fc842783          	lw	a5,-56(s0)
     f9c:	0007c703          	lbu	a4,0(a5)
     fa0:	05800793          	li	a5,88
     fa4:	02f71663          	bne	a4,a5,fd0 <qprint+0x1f8>
     fa8:	fc442783          	lw	a5,-60(s0)
     fac:	00478713          	add	a4,a5,4
     fb0:	fce42223          	sw	a4,-60(s0)
     fb4:	439c                	lw	a5,0(a5)
     fb6:	85be                	mv	a1,a5
     fb8:	04100813          	li	a6,65
     fbc:	87ce                	mv	a5,s3
     fbe:	874a                	mv	a4,s2
     fc0:	4681                	li	a3,0
     fc2:	4641                	li	a2,16
     fc4:	fcc42503          	lw	a0,-52(s0)
     fc8:	314d                	jal	c6a <qprinti>
     fca:	87aa                	mv	a5,a0
     fcc:	94be                	add	s1,s1,a5
     fce:	a8a9                	j	1028 <_min_stack+0x28>
     fd0:	fc842783          	lw	a5,-56(s0)
     fd4:	0007c703          	lbu	a4,0(a5)
     fd8:	06300793          	li	a5,99
     fdc:	04f71663          	bne	a4,a5,1028 <_min_stack+0x28>
     fe0:	fc442783          	lw	a5,-60(s0)
     fe4:	00478713          	add	a4,a5,4
     fe8:	fce42223          	sw	a4,-60(s0)
     fec:	439c                	lw	a5,0(a5)
     fee:	0ff7f793          	zext.b	a5,a5
     ff2:	fcf40e23          	sb	a5,-36(s0)
     ff6:	fc040ea3          	sb	zero,-35(s0)
     ffa:	fdc40793          	add	a5,s0,-36
     ffe:	86ce                	mv	a3,s3
    1000:	864a                	mv	a2,s2
    1002:	85be                	mv	a1,a5
    1004:	fcc42503          	lw	a0,-52(s0)
    1008:	3eb5                	jal	b84 <qprints>
    100a:	87aa                	mv	a5,a0
    100c:	94be                	add	s1,s1,a5
    100e:	a829                	j	1028 <_min_stack+0x28>
    1010:	0001                	nop
    1012:	a011                	j	1016 <_min_stack+0x16>
    1014:	0001                	nop
    1016:	fc842783          	lw	a5,-56(s0)
    101a:	0007c783          	lbu	a5,0(a5)
    101e:	85be                	mv	a1,a5
    1020:	fcc42503          	lw	a0,-52(s0)
    1024:	3e01                	jal	b34 <qprintchar>
    1026:	0485                	add	s1,s1,1
    1028:	fc842783          	lw	a5,-56(s0)
    102c:	0785                	add	a5,a5,1
    102e:	fcf42423          	sw	a5,-56(s0)
    1032:	fc842783          	lw	a5,-56(s0)
    1036:	0007c783          	lbu	a5,0(a5)
    103a:	da079ee3          	bnez	a5,df6 <qprint+0x1e>
    103e:	a011                	j	1042 <_min_stack+0x42>
    1040:	0001                	nop
    1042:	fcc42783          	lw	a5,-52(s0)
    1046:	c791                	beqz	a5,1052 <_min_stack+0x52>
    1048:	fcc42783          	lw	a5,-52(s0)
    104c:	439c                	lw	a5,0(a5)
    104e:	00078023          	sb	zero,0(a5)
    1052:	87a6                	mv	a5,s1
    1054:	853e                	mv	a0,a5
    1056:	50f2                	lw	ra,60(sp)
    1058:	5462                	lw	s0,56(sp)
    105a:	54d2                	lw	s1,52(sp)
    105c:	5942                	lw	s2,48(sp)
    105e:	59b2                	lw	s3,44(sp)
    1060:	6121                	add	sp,sp,64
    1062:	8082                	ret

00001064 <printf>:
    1064:	715d                	add	sp,sp,-80
    1066:	d606                	sw	ra,44(sp)
    1068:	d422                	sw	s0,40(sp)
    106a:	1800                	add	s0,sp,48
    106c:	fca42e23          	sw	a0,-36(s0)
    1070:	c04c                	sw	a1,4(s0)
    1072:	c410                	sw	a2,8(s0)
    1074:	c454                	sw	a3,12(s0)
    1076:	c818                	sw	a4,16(s0)
    1078:	c85c                	sw	a5,20(s0)
    107a:	01042c23          	sw	a6,24(s0)
    107e:	01142e23          	sw	a7,28(s0)
    1082:	02040793          	add	a5,s0,32
    1086:	fcf42c23          	sw	a5,-40(s0)
    108a:	fd842783          	lw	a5,-40(s0)
    108e:	1791                	add	a5,a5,-28
    1090:	fef42423          	sw	a5,-24(s0)
    1094:	fe842783          	lw	a5,-24(s0)
    1098:	863e                	mv	a2,a5
    109a:	fdc42583          	lw	a1,-36(s0)
    109e:	4501                	li	a0,0
    10a0:	3b25                	jal	dd8 <qprint>
    10a2:	fea42623          	sw	a0,-20(s0)
    10a6:	fec42783          	lw	a5,-20(s0)
    10aa:	853e                	mv	a0,a5
    10ac:	50b2                	lw	ra,44(sp)
    10ae:	5422                	lw	s0,40(sp)
    10b0:	6161                	add	sp,sp,80
    10b2:	8082                	ret

000010b4 <puts>:
    10b4:	7179                	add	sp,sp,-48
    10b6:	d606                	sw	ra,44(sp)
    10b8:	d422                	sw	s0,40(sp)
    10ba:	1800                	add	s0,sp,48
    10bc:	fca42e23          	sw	a0,-36(s0)
    10c0:	fe042623          	sw	zero,-20(s0)
    10c4:	a839                	j	10e2 <puts+0x2e>
    10c6:	fec42783          	lw	a5,-20(s0)
    10ca:	00178713          	add	a4,a5,1
    10ce:	fee42623          	sw	a4,-20(s0)
    10d2:	873e                	mv	a4,a5
    10d4:	fdc42783          	lw	a5,-36(s0)
    10d8:	97ba                	add	a5,a5,a4
    10da:	0007c783          	lbu	a5,0(a5)
    10de:	853e                	mv	a0,a5
    10e0:	343d                	jal	b0e <putchar>
    10e2:	fec42783          	lw	a5,-20(s0)
    10e6:	fdc42703          	lw	a4,-36(s0)
    10ea:	97ba                	add	a5,a5,a4
    10ec:	0007c783          	lbu	a5,0(a5)
    10f0:	fbf9                	bnez	a5,10c6 <puts+0x12>
    10f2:	4529                	li	a0,10
    10f4:	3c29                	jal	b0e <putchar>
    10f6:	fec42783          	lw	a5,-20(s0)
    10fa:	853e                	mv	a0,a5
    10fc:	50b2                	lw	ra,44(sp)
    10fe:	5422                	lw	s0,40(sp)
    1100:	6145                	add	sp,sp,48
    1102:	8082                	ret

00001104 <strcmp>:
    1104:	7179                	add	sp,sp,-48
    1106:	d622                	sw	s0,44(sp)
    1108:	1800                	add	s0,sp,48
    110a:	fca42e23          	sw	a0,-36(s0)
    110e:	fcb42c23          	sw	a1,-40(s0)
    1112:	fdc42703          	lw	a4,-36(s0)
    1116:	fd842783          	lw	a5,-40(s0)
    111a:	8fd9                	or	a5,a5,a4
    111c:	8b8d                	and	a5,a5,3
    111e:	e7c9                	bnez	a5,11a8 <strcmp+0xa4>
    1120:	fdc42783          	lw	a5,-36(s0)
    1124:	fef42623          	sw	a5,-20(s0)
    1128:	fd842783          	lw	a5,-40(s0)
    112c:	fef42423          	sw	a5,-24(s0)
    1130:	a089                	j	1172 <strcmp+0x6e>
    1132:	fec42783          	lw	a5,-20(s0)
    1136:	4398                	lw	a4,0(a5)
    1138:	feff07b7          	lui	a5,0xfeff0
    113c:	eff78793          	add	a5,a5,-257 # fefefeff <_stack_start+0xfeee7eff>
    1140:	973e                	add	a4,a4,a5
    1142:	fec42783          	lw	a5,-20(s0)
    1146:	439c                	lw	a5,0(a5)
    1148:	fff7c793          	not	a5,a5
    114c:	8f7d                	and	a4,a4,a5
    114e:	808087b7          	lui	a5,0x80808
    1152:	08078793          	add	a5,a5,128 # 80808080 <_stack_start+0x80700080>
    1156:	8ff9                	and	a5,a5,a4
    1158:	c399                	beqz	a5,115e <strcmp+0x5a>
    115a:	4781                	li	a5,0
    115c:	a041                	j	11dc <strcmp+0xd8>
    115e:	fec42783          	lw	a5,-20(s0)
    1162:	0791                	add	a5,a5,4
    1164:	fef42623          	sw	a5,-20(s0)
    1168:	fe842783          	lw	a5,-24(s0)
    116c:	0791                	add	a5,a5,4
    116e:	fef42423          	sw	a5,-24(s0)
    1172:	fec42783          	lw	a5,-20(s0)
    1176:	4398                	lw	a4,0(a5)
    1178:	fe842783          	lw	a5,-24(s0)
    117c:	439c                	lw	a5,0(a5)
    117e:	faf70ae3          	beq	a4,a5,1132 <strcmp+0x2e>
    1182:	fec42783          	lw	a5,-20(s0)
    1186:	fcf42e23          	sw	a5,-36(s0)
    118a:	fe842783          	lw	a5,-24(s0)
    118e:	fcf42c23          	sw	a5,-40(s0)
    1192:	a819                	j	11a8 <strcmp+0xa4>
    1194:	fdc42783          	lw	a5,-36(s0)
    1198:	0785                	add	a5,a5,1
    119a:	fcf42e23          	sw	a5,-36(s0)
    119e:	fd842783          	lw	a5,-40(s0)
    11a2:	0785                	add	a5,a5,1
    11a4:	fcf42c23          	sw	a5,-40(s0)
    11a8:	fdc42783          	lw	a5,-36(s0)
    11ac:	0007c783          	lbu	a5,0(a5)
    11b0:	cb99                	beqz	a5,11c6 <strcmp+0xc2>
    11b2:	fdc42783          	lw	a5,-36(s0)
    11b6:	0007c703          	lbu	a4,0(a5)
    11ba:	fd842783          	lw	a5,-40(s0)
    11be:	0007c783          	lbu	a5,0(a5)
    11c2:	fcf709e3          	beq	a4,a5,1194 <strcmp+0x90>
    11c6:	fdc42783          	lw	a5,-36(s0)
    11ca:	0007c783          	lbu	a5,0(a5)
    11ce:	873e                	mv	a4,a5
    11d0:	fd842783          	lw	a5,-40(s0)
    11d4:	0007c783          	lbu	a5,0(a5)
    11d8:	40f707b3          	sub	a5,a4,a5
    11dc:	853e                	mv	a0,a5
    11de:	5432                	lw	s0,44(sp)
    11e0:	6145                	add	sp,sp,48
    11e2:	8082                	ret

000011e4 <memset>:
    11e4:	7179                	add	sp,sp,-48
    11e6:	d622                	sw	s0,44(sp)
    11e8:	1800                	add	s0,sp,48
    11ea:	fca42e23          	sw	a0,-36(s0)
    11ee:	fcb42c23          	sw	a1,-40(s0)
    11f2:	fcc42a23          	sw	a2,-44(s0)
    11f6:	fdc42783          	lw	a5,-36(s0)
    11fa:	fef42623          	sw	a5,-20(s0)
    11fe:	a015                	j	1222 <memset+0x3e>
    1200:	fec42783          	lw	a5,-20(s0)
    1204:	00178713          	add	a4,a5,1
    1208:	fee42623          	sw	a4,-20(s0)
    120c:	fd842703          	lw	a4,-40(s0)
    1210:	0ff77713          	zext.b	a4,a4
    1214:	00e78023          	sb	a4,0(a5)
    1218:	fd442783          	lw	a5,-44(s0)
    121c:	17fd                	add	a5,a5,-1
    121e:	fcf42a23          	sw	a5,-44(s0)
    1222:	fd442783          	lw	a5,-44(s0)
    1226:	ffe9                	bnez	a5,1200 <memset+0x1c>
    1228:	fdc42783          	lw	a5,-36(s0)
    122c:	853e                	mv	a0,a5
    122e:	5432                	lw	s0,44(sp)
    1230:	6145                	add	sp,sp,48
    1232:	8082                	ret

00001234 <strcpy>:
    1234:	7179                	add	sp,sp,-48
    1236:	d622                	sw	s0,44(sp)
    1238:	1800                	add	s0,sp,48
    123a:	fca42e23          	sw	a0,-36(s0)
    123e:	fcb42c23          	sw	a1,-40(s0)
    1242:	fdc42783          	lw	a5,-36(s0)
    1246:	fef42623          	sw	a5,-20(s0)
    124a:	fd842783          	lw	a5,-40(s0)
    124e:	fef42423          	sw	a5,-24(s0)
    1252:	a01d                	j	1278 <strcpy+0x44>
    1254:	fe842783          	lw	a5,-24(s0)
    1258:	0007c703          	lbu	a4,0(a5)
    125c:	fec42783          	lw	a5,-20(s0)
    1260:	00e78023          	sb	a4,0(a5)
    1264:	fec42783          	lw	a5,-20(s0)
    1268:	0785                	add	a5,a5,1
    126a:	fef42623          	sw	a5,-20(s0)
    126e:	fe842783          	lw	a5,-24(s0)
    1272:	0785                	add	a5,a5,1
    1274:	fef42423          	sw	a5,-24(s0)
    1278:	fe842783          	lw	a5,-24(s0)
    127c:	0007c783          	lbu	a5,0(a5)
    1280:	fbf1                	bnez	a5,1254 <strcpy+0x20>
    1282:	fdc42783          	lw	a5,-36(s0)
    1286:	853e                	mv	a0,a5
    1288:	5432                	lw	s0,44(sp)
    128a:	6145                	add	sp,sp,48
    128c:	8082                	ret

0000128e <strlen>:
    128e:	7179                	add	sp,sp,-48
    1290:	d622                	sw	s0,44(sp)
    1292:	1800                	add	s0,sp,48
    1294:	fca42e23          	sw	a0,-36(s0)
    1298:	fdc42783          	lw	a5,-36(s0)
    129c:	fef42623          	sw	a5,-20(s0)
    12a0:	fe042423          	sw	zero,-24(s0)
    12a4:	fec42783          	lw	a5,-20(s0)
    12a8:	eb81                	bnez	a5,12b8 <strlen+0x2a>
    12aa:	4781                	li	a5,0
    12ac:	a00d                	j	12ce <strlen+0x40>
    12ae:	fe842783          	lw	a5,-24(s0)
    12b2:	0785                	add	a5,a5,1
    12b4:	fef42423          	sw	a5,-24(s0)
    12b8:	fec42783          	lw	a5,-20(s0)
    12bc:	00178713          	add	a4,a5,1
    12c0:	fee42623          	sw	a4,-20(s0)
    12c4:	0007c783          	lbu	a5,0(a5)
    12c8:	f3fd                	bnez	a5,12ae <strlen+0x20>
    12ca:	fe842783          	lw	a5,-24(s0)
    12ce:	853e                	mv	a0,a5
    12d0:	5432                	lw	s0,44(sp)
    12d2:	6145                	add	sp,sp,48
    12d4:	8082                	ret

000012d6 <sprintf>:
    12d6:	715d                	add	sp,sp,-80
    12d8:	d606                	sw	ra,44(sp)
    12da:	d422                	sw	s0,40(sp)
    12dc:	1800                	add	s0,sp,48
    12de:	fca42e23          	sw	a0,-36(s0)
    12e2:	fcb42c23          	sw	a1,-40(s0)
    12e6:	c410                	sw	a2,8(s0)
    12e8:	c454                	sw	a3,12(s0)
    12ea:	c818                	sw	a4,16(s0)
    12ec:	c85c                	sw	a5,20(s0)
    12ee:	01042c23          	sw	a6,24(s0)
    12f2:	01142e23          	sw	a7,28(s0)
    12f6:	02040793          	add	a5,s0,32
    12fa:	fcf42a23          	sw	a5,-44(s0)
    12fe:	fd442783          	lw	a5,-44(s0)
    1302:	17a1                	add	a5,a5,-24
    1304:	fef42423          	sw	a5,-24(s0)
    1308:	fe842703          	lw	a4,-24(s0)
    130c:	fdc40793          	add	a5,s0,-36
    1310:	863a                	mv	a2,a4
    1312:	fd842583          	lw	a1,-40(s0)
    1316:	853e                	mv	a0,a5
    1318:	34c1                	jal	dd8 <qprint>
    131a:	fea42623          	sw	a0,-20(s0)
    131e:	fec42783          	lw	a5,-20(s0)
    1322:	853e                	mv	a0,a5
    1324:	50b2                	lw	ra,44(sp)
    1326:	5422                	lw	s0,40(sp)
    1328:	6161                	add	sp,sp,80
    132a:	8082                	ret

0000132c <vsprintf>:
    132c:	1101                	add	sp,sp,-32
    132e:	ce06                	sw	ra,28(sp)
    1330:	cc22                	sw	s0,24(sp)
    1332:	1000                	add	s0,sp,32
    1334:	fea42623          	sw	a0,-20(s0)
    1338:	feb42423          	sw	a1,-24(s0)
    133c:	fec42223          	sw	a2,-28(s0)
    1340:	fec40793          	add	a5,s0,-20
    1344:	fe442603          	lw	a2,-28(s0)
    1348:	fe842583          	lw	a1,-24(s0)
    134c:	853e                	mv	a0,a5
    134e:	3469                	jal	dd8 <qprint>
    1350:	87aa                	mv	a5,a0
    1352:	853e                	mv	a0,a5
    1354:	40f2                	lw	ra,28(sp)
    1356:	4462                	lw	s0,24(sp)
    1358:	6105                	add	sp,sp,32
    135a:	8082                	ret

0000135c <ISR_I2C>:
    135c:	1141                	add	sp,sp,-16
    135e:	c622                	sw	s0,12(sp)
    1360:	0800                	add	s0,sp,16
    1362:	a001                	j	1362 <ISR_I2C+0x6>

00001364 <ISR_UART>:
    1364:	1141                	add	sp,sp,-16
    1366:	c622                	sw	s0,12(sp)
    1368:	0800                	add	s0,sp,16
    136a:	a001                	j	136a <ISR_UART+0x6>

0000136c <ISR_GPIO>:
    136c:	1141                	add	sp,sp,-16
    136e:	c622                	sw	s0,12(sp)
    1370:	0800                	add	s0,sp,16
    1372:	a001                	j	1372 <ISR_GPIO+0x6>

00001374 <ISR_SPIM0>:
    1374:	1141                	add	sp,sp,-16
    1376:	c622                	sw	s0,12(sp)
    1378:	0800                	add	s0,sp,16
    137a:	a001                	j	137a <ISR_SPIM0+0x6>

0000137c <ISR_SPIM1>:
    137c:	1141                	add	sp,sp,-16
    137e:	c622                	sw	s0,12(sp)
    1380:	0800                	add	s0,sp,16
    1382:	a001                	j	1382 <ISR_SPIM1+0x6>

00001384 <ISR_TA_OVF>:
    1384:	1141                	add	sp,sp,-16
    1386:	c622                	sw	s0,12(sp)
    1388:	0800                	add	s0,sp,16
    138a:	a001                	j	138a <ISR_TA_OVF+0x6>

0000138c <ISR_TA_CMP>:
    138c:	1141                	add	sp,sp,-16
    138e:	c622                	sw	s0,12(sp)
    1390:	0800                	add	s0,sp,16
    1392:	a001                	j	1392 <ISR_TA_CMP+0x6>

00001394 <ISR_TB_OVF>:
    1394:	1141                	add	sp,sp,-16
    1396:	c622                	sw	s0,12(sp)
    1398:	0800                	add	s0,sp,16
    139a:	a001                	j	139a <ISR_TB_OVF+0x6>

0000139c <ISR_TB_CMP>:
    139c:	1141                	add	sp,sp,-16
    139e:	c622                	sw	s0,12(sp)
    13a0:	0800                	add	s0,sp,16
    13a2:	a001                	j	13a2 <ISR_TB_CMP+0x6>

000013a4 <reset_timer>:
    13a4:	1141                	add	sp,sp,-16
    13a6:	c622                	sw	s0,12(sp)
    13a8:	0800                	add	s0,sp,16
    13aa:	1a1037b7          	lui	a5,0x1a103
    13ae:	0007a023          	sw	zero,0(a5) # 1a103000 <_stack_start+0x19ffb000>
    13b2:	0001                	nop
    13b4:	4432                	lw	s0,12(sp)
    13b6:	0141                	add	sp,sp,16
    13b8:	8082                	ret

000013ba <start_timer>:
    13ba:	1141                	add	sp,sp,-16
    13bc:	c622                	sw	s0,12(sp)
    13be:	0800                	add	s0,sp,16
    13c0:	1a1037b7          	lui	a5,0x1a103
    13c4:	0791                	add	a5,a5,4 # 1a103004 <_stack_start+0x19ffb004>
    13c6:	4705                	li	a4,1
    13c8:	c398                	sw	a4,0(a5)
    13ca:	0001                	nop
    13cc:	4432                	lw	s0,12(sp)
    13ce:	0141                	add	sp,sp,16
    13d0:	8082                	ret

000013d2 <stop_timer>:
    13d2:	1141                	add	sp,sp,-16
    13d4:	c622                	sw	s0,12(sp)
    13d6:	0800                	add	s0,sp,16
    13d8:	1a1037b7          	lui	a5,0x1a103
    13dc:	0791                	add	a5,a5,4 # 1a103004 <_stack_start+0x19ffb004>
    13de:	0007a023          	sw	zero,0(a5)
    13e2:	0001                	nop
    13e4:	4432                	lw	s0,12(sp)
    13e6:	0141                	add	sp,sp,16
    13e8:	8082                	ret

000013ea <get_time>:
    13ea:	1141                	add	sp,sp,-16
    13ec:	c622                	sw	s0,12(sp)
    13ee:	0800                	add	s0,sp,16
    13f0:	1a1037b7          	lui	a5,0x1a103
    13f4:	439c                	lw	a5,0(a5)
    13f6:	853e                	mv	a0,a5
    13f8:	4432                	lw	s0,12(sp)
    13fa:	0141                	add	sp,sp,16
    13fc:	8082                	ret

000013fe <default_exception_handler_c>:
    13fe:	1141                	add	sp,sp,-16
    1400:	c622                	sw	s0,12(sp)
    1402:	0800                	add	s0,sp,16
    1404:	a001                	j	1404 <default_exception_handler_c+0x6>

00001406 <illegal_insn_handler_c>:
    1406:	1141                	add	sp,sp,-16
    1408:	c622                	sw	s0,12(sp)
    140a:	0800                	add	s0,sp,16
    140c:	a001                	j	140c <illegal_insn_handler_c+0x6>

0000140e <ecall_insn_handler_c>:
    140e:	1141                	add	sp,sp,-16
    1410:	c622                	sw	s0,12(sp)
    1412:	0800                	add	s0,sp,16
    1414:	a001                	j	1414 <ecall_insn_handler_c+0x6>
	...

00001418 <__divsf3>:
    1418:	fe010113          	add	sp,sp,-32
    141c:	00912a23          	sw	s1,20(sp)
    1420:	01755493          	srl	s1,a0,0x17
    1424:	01212823          	sw	s2,16(sp)
    1428:	01312623          	sw	s3,12(sp)
    142c:	01412423          	sw	s4,8(sp)
    1430:	00951713          	sll	a4,a0,0x9
    1434:	00112e23          	sw	ra,28(sp)
    1438:	00812c23          	sw	s0,24(sp)
    143c:	01512223          	sw	s5,4(sp)
    1440:	0ff4f493          	zext.b	s1,s1
    1444:	00058a13          	mv	s4,a1
    1448:	00975993          	srl	s3,a4,0x9
    144c:	01f55913          	srl	s2,a0,0x1f
    1450:	08048463          	beqz	s1,14d8 <__divsf3+0xc0>
    1454:	0ff00793          	li	a5,255
    1458:	0af48063          	beq	s1,a5,14f8 <__divsf3+0xe0>
    145c:	00399713          	sll	a4,s3,0x3
    1460:	040007b7          	lui	a5,0x4000
    1464:	00f769b3          	or	s3,a4,a5
    1468:	f8148493          	add	s1,s1,-127
    146c:	00000a93          	li	s5,0
    1470:	017a5793          	srl	a5,s4,0x17
    1474:	009a1413          	sll	s0,s4,0x9
    1478:	0ff7f793          	zext.b	a5,a5
    147c:	00945413          	srl	s0,s0,0x9
    1480:	01fa5a13          	srl	s4,s4,0x1f
    1484:	08078a63          	beqz	a5,1518 <__divsf3+0x100>
    1488:	0ff00713          	li	a4,255
    148c:	0ae78663          	beq	a5,a4,1538 <__divsf3+0x120>
    1490:	00341413          	sll	s0,s0,0x3
    1494:	04000737          	lui	a4,0x4000
    1498:	00e46433          	or	s0,s0,a4
    149c:	f8178793          	add	a5,a5,-127 # 3ffff81 <_stack_start+0x3ef7f81>
    14a0:	00000693          	li	a3,0
    14a4:	40f484b3          	sub	s1,s1,a5
    14a8:	002a9793          	sll	a5,s5,0x2
    14ac:	00d7e7b3          	or	a5,a5,a3
    14b0:	fff78793          	add	a5,a5,-1
    14b4:	00e00713          	li	a4,14
    14b8:	01494633          	xor	a2,s2,s4
    14bc:	0cf76663          	bltu	a4,a5,1588 <__divsf3+0x170>
    14c0:	00100737          	lui	a4,0x100
    14c4:	00279793          	sll	a5,a5,0x2
    14c8:	05470713          	add	a4,a4,84 # 100054 <__init_array_end+0x54>
    14cc:	00e787b3          	add	a5,a5,a4
    14d0:	0007a783          	lw	a5,0(a5)
    14d4:	00078067          	jr	a5
    14d8:	02098a63          	beqz	s3,150c <__divsf3+0xf4>
    14dc:	00098513          	mv	a0,s3
    14e0:	4b9000ef          	jal	2198 <__clzsi2>
    14e4:	ffb50793          	add	a5,a0,-5
    14e8:	f8a00493          	li	s1,-118
    14ec:	00f999b3          	sll	s3,s3,a5
    14f0:	40a484b3          	sub	s1,s1,a0
    14f4:	f79ff06f          	j	146c <__divsf3+0x54>
    14f8:	0ff00493          	li	s1,255
    14fc:	00300a93          	li	s5,3
    1500:	f60998e3          	bnez	s3,1470 <__divsf3+0x58>
    1504:	00200a93          	li	s5,2
    1508:	f69ff06f          	j	1470 <__divsf3+0x58>
    150c:	00000493          	li	s1,0
    1510:	00100a93          	li	s5,1
    1514:	f5dff06f          	j	1470 <__divsf3+0x58>
    1518:	02040a63          	beqz	s0,154c <__divsf3+0x134>
    151c:	00040513          	mv	a0,s0
    1520:	479000ef          	jal	2198 <__clzsi2>
    1524:	ffb50793          	add	a5,a0,-5
    1528:	00f41433          	sll	s0,s0,a5
    152c:	f8a00793          	li	a5,-118
    1530:	40a787b3          	sub	a5,a5,a0
    1534:	f6dff06f          	j	14a0 <__divsf3+0x88>
    1538:	0ff00793          	li	a5,255
    153c:	00300693          	li	a3,3
    1540:	f60412e3          	bnez	s0,14a4 <__divsf3+0x8c>
    1544:	00200693          	li	a3,2
    1548:	f5dff06f          	j	14a4 <__divsf3+0x8c>
    154c:	00000793          	li	a5,0
    1550:	00100693          	li	a3,1
    1554:	f51ff06f          	j	14a4 <__divsf3+0x8c>
    1558:	00090613          	mv	a2,s2
    155c:	00098413          	mv	s0,s3
    1560:	000a8693          	mv	a3,s5
    1564:	00200793          	li	a5,2
    1568:	1cf68a63          	beq	a3,a5,173c <__divsf3+0x324>
    156c:	00300793          	li	a5,3
    1570:	1af68e63          	beq	a3,a5,172c <__divsf3+0x314>
    1574:	00100793          	li	a5,1
    1578:	0af69c63          	bne	a3,a5,1630 <__divsf3+0x218>
    157c:	00000793          	li	a5,0
    1580:	00000713          	li	a4,0
    1584:	0f40006f          	j	1678 <__divsf3+0x260>
    1588:	00541593          	sll	a1,s0,0x5
    158c:	1289f463          	bgeu	s3,s0,16b4 <__divsf3+0x29c>
    1590:	fff48493          	add	s1,s1,-1
    1594:	00000793          	li	a5,0
    1598:	0105d513          	srl	a0,a1,0x10
    159c:	02a9d8b3          	divu	a7,s3,a0
    15a0:	000106b7          	lui	a3,0x10
    15a4:	fff68693          	add	a3,a3,-1 # ffff <__DTOR_END__+0xde0b>
    15a8:	00d5f6b3          	and	a3,a1,a3
    15ac:	0107d793          	srl	a5,a5,0x10
    15b0:	02a9f733          	remu	a4,s3,a0
    15b4:	00088413          	mv	s0,a7
    15b8:	03168833          	mul	a6,a3,a7
    15bc:	01071713          	sll	a4,a4,0x10
    15c0:	00e7e7b3          	or	a5,a5,a4
    15c4:	0107fe63          	bgeu	a5,a6,15e0 <__divsf3+0x1c8>
    15c8:	00f587b3          	add	a5,a1,a5
    15cc:	fff88413          	add	s0,a7,-1
    15d0:	00b7e863          	bltu	a5,a1,15e0 <__divsf3+0x1c8>
    15d4:	0107f663          	bgeu	a5,a6,15e0 <__divsf3+0x1c8>
    15d8:	ffe88413          	add	s0,a7,-2
    15dc:	00b787b3          	add	a5,a5,a1
    15e0:	410787b3          	sub	a5,a5,a6
    15e4:	02a7d833          	divu	a6,a5,a0
    15e8:	02a7f7b3          	remu	a5,a5,a0
    15ec:	03068733          	mul	a4,a3,a6
    15f0:	01079793          	sll	a5,a5,0x10
    15f4:	00080693          	mv	a3,a6
    15f8:	02e7f263          	bgeu	a5,a4,161c <__divsf3+0x204>
    15fc:	00b78533          	add	a0,a5,a1
    1600:	00f538b3          	sltu	a7,a0,a5
    1604:	fff80693          	add	a3,a6,-1
    1608:	00050793          	mv	a5,a0
    160c:	00089863          	bnez	a7,161c <__divsf3+0x204>
    1610:	00e57663          	bgeu	a0,a4,161c <__divsf3+0x204>
    1614:	ffe80693          	add	a3,a6,-2
    1618:	00b507b3          	add	a5,a0,a1
    161c:	01041413          	sll	s0,s0,0x10
    1620:	40e787b3          	sub	a5,a5,a4
    1624:	00d46433          	or	s0,s0,a3
    1628:	00f037b3          	snez	a5,a5
    162c:	00f46433          	or	s0,s0,a5
    1630:	07f48713          	add	a4,s1,127
    1634:	08e05a63          	blez	a4,16c8 <__divsf3+0x2b0>
    1638:	00747793          	and	a5,s0,7
    163c:	00078a63          	beqz	a5,1650 <__divsf3+0x238>
    1640:	00f47793          	and	a5,s0,15
    1644:	00400693          	li	a3,4
    1648:	00d78463          	beq	a5,a3,1650 <__divsf3+0x238>
    164c:	00440413          	add	s0,s0,4
    1650:	080007b7          	lui	a5,0x8000
    1654:	00f477b3          	and	a5,s0,a5
    1658:	00078a63          	beqz	a5,166c <__divsf3+0x254>
    165c:	f80007b7          	lui	a5,0xf8000
    1660:	fff78793          	add	a5,a5,-1 # f7ffffff <_stack_start+0xf7ef7fff>
    1664:	00f47433          	and	s0,s0,a5
    1668:	08048713          	add	a4,s1,128
    166c:	0fe00793          	li	a5,254
    1670:	0ce7c663          	blt	a5,a4,173c <__divsf3+0x324>
    1674:	00345793          	srl	a5,s0,0x3
    1678:	01c12083          	lw	ra,28(sp)
    167c:	01812403          	lw	s0,24(sp)
    1680:	00979793          	sll	a5,a5,0x9
    1684:	01771713          	sll	a4,a4,0x17
    1688:	0097d793          	srl	a5,a5,0x9
    168c:	00f76733          	or	a4,a4,a5
    1690:	01f61513          	sll	a0,a2,0x1f
    1694:	01412483          	lw	s1,20(sp)
    1698:	01012903          	lw	s2,16(sp)
    169c:	00c12983          	lw	s3,12(sp)
    16a0:	00812a03          	lw	s4,8(sp)
    16a4:	00412a83          	lw	s5,4(sp)
    16a8:	00a76533          	or	a0,a4,a0
    16ac:	02010113          	add	sp,sp,32
    16b0:	00008067          	ret
    16b4:	01f99793          	sll	a5,s3,0x1f
    16b8:	0019d993          	srl	s3,s3,0x1
    16bc:	eddff06f          	j	1598 <__divsf3+0x180>
    16c0:	000a0613          	mv	a2,s4
    16c4:	ea1ff06f          	j	1564 <__divsf3+0x14c>
    16c8:	00100693          	li	a3,1
    16cc:	00070c63          	beqz	a4,16e4 <__divsf3+0x2cc>
    16d0:	40e686b3          	sub	a3,a3,a4
    16d4:	01b00593          	li	a1,27
    16d8:	00000793          	li	a5,0
    16dc:	00000713          	li	a4,0
    16e0:	f8d5cce3          	blt	a1,a3,1678 <__divsf3+0x260>
    16e4:	09e48493          	add	s1,s1,158
    16e8:	00d456b3          	srl	a3,s0,a3
    16ec:	00941433          	sll	s0,s0,s1
    16f0:	00803433          	snez	s0,s0
    16f4:	0086e7b3          	or	a5,a3,s0
    16f8:	0077f713          	and	a4,a5,7
    16fc:	00070a63          	beqz	a4,1710 <__divsf3+0x2f8>
    1700:	00f7f713          	and	a4,a5,15
    1704:	00400693          	li	a3,4
    1708:	00d70463          	beq	a4,a3,1710 <__divsf3+0x2f8>
    170c:	00478793          	add	a5,a5,4
    1710:	04000737          	lui	a4,0x4000
    1714:	00e7f733          	and	a4,a5,a4
    1718:	0037d793          	srl	a5,a5,0x3
    171c:	f4070ee3          	beqz	a4,1678 <__divsf3+0x260>
    1720:	00000793          	li	a5,0
    1724:	00100713          	li	a4,1
    1728:	f51ff06f          	j	1678 <__divsf3+0x260>
    172c:	004007b7          	lui	a5,0x400
    1730:	0ff00713          	li	a4,255
    1734:	00000613          	li	a2,0
    1738:	f41ff06f          	j	1678 <__divsf3+0x260>
    173c:	00000793          	li	a5,0
    1740:	0ff00713          	li	a4,255
    1744:	f35ff06f          	j	1678 <__divsf3+0x260>

00001748 <__lesf2>:
    1748:	00800737          	lui	a4,0x800
    174c:	fff70713          	add	a4,a4,-1 # 7fffff <_stack_start+0x6f7fff>
    1750:	01755693          	srl	a3,a0,0x17
    1754:	00a77633          	and	a2,a4,a0
    1758:	01f55793          	srl	a5,a0,0x1f
    175c:	0ff6f693          	zext.b	a3,a3
    1760:	0175d513          	srl	a0,a1,0x17
    1764:	0ff00813          	li	a6,255
    1768:	00b77733          	and	a4,a4,a1
    176c:	0ff57513          	zext.b	a0,a0
    1770:	01f5d593          	srl	a1,a1,0x1f
    1774:	03069863          	bne	a3,a6,17a4 <__lesf2+0x5c>
    1778:	08061e63          	bnez	a2,1814 <__lesf2+0xcc>
    177c:	00d50a63          	beq	a0,a3,1790 <__lesf2+0x48>
    1780:	00100513          	li	a0,1
    1784:	06078c63          	beqz	a5,17fc <__lesf2+0xb4>
    1788:	fff00513          	li	a0,-1
    178c:	00008067          	ret
    1790:	00200513          	li	a0,2
    1794:	06071463          	bnez	a4,17fc <__lesf2+0xb4>
    1798:	feb794e3          	bne	a5,a1,1780 <__lesf2+0x38>
    179c:	00000513          	li	a0,0
    17a0:	00008067          	ret
    17a4:	03051463          	bne	a0,a6,17cc <__lesf2+0x84>
    17a8:	00200513          	li	a0,2
    17ac:	04071863          	bnez	a4,17fc <__lesf2+0xb4>
    17b0:	00069463          	bnez	a3,17b8 <__lesf2+0x70>
    17b4:	04060863          	beqz	a2,1804 <__lesf2+0xbc>
    17b8:	fcb794e3          	bne	a5,a1,1780 <__lesf2+0x38>
    17bc:	fff00513          	li	a0,-1
    17c0:	02078e63          	beqz	a5,17fc <__lesf2+0xb4>
    17c4:	00078513          	mv	a0,a5
    17c8:	00008067          	ret
    17cc:	02068263          	beqz	a3,17f0 <__lesf2+0xa8>
    17d0:	fa0508e3          	beqz	a0,1780 <__lesf2+0x38>
    17d4:	fab796e3          	bne	a5,a1,1780 <__lesf2+0x38>
    17d8:	fad544e3          	blt	a0,a3,1780 <__lesf2+0x38>
    17dc:	fea6c0e3          	blt	a3,a0,17bc <__lesf2+0x74>
    17e0:	fac760e3          	bltu	a4,a2,1780 <__lesf2+0x38>
    17e4:	00000513          	li	a0,0
    17e8:	00e67a63          	bgeu	a2,a4,17fc <__lesf2+0xb4>
    17ec:	fd1ff06f          	j	17bc <__lesf2+0x74>
    17f0:	fc0512e3          	bnez	a0,17b4 <__lesf2+0x6c>
    17f4:	00071663          	bnez	a4,1800 <__lesf2+0xb8>
    17f8:	f80614e3          	bnez	a2,1780 <__lesf2+0x38>
    17fc:	00008067          	ret
    1800:	00061e63          	bnez	a2,181c <__lesf2+0xd4>
    1804:	fff00513          	li	a0,-1
    1808:	fe058ae3          	beqz	a1,17fc <__lesf2+0xb4>
    180c:	00058513          	mv	a0,a1
    1810:	00008067          	ret
    1814:	00200513          	li	a0,2
    1818:	00008067          	ret
    181c:	fcb782e3          	beq	a5,a1,17e0 <__lesf2+0x98>
    1820:	f61ff06f          	j	1780 <__lesf2+0x38>

00001824 <__mulsf3>:
    1824:	fe010113          	add	sp,sp,-32
    1828:	01212823          	sw	s2,16(sp)
    182c:	01755913          	srl	s2,a0,0x17
    1830:	00912a23          	sw	s1,20(sp)
    1834:	01312623          	sw	s3,12(sp)
    1838:	01512223          	sw	s5,4(sp)
    183c:	00951493          	sll	s1,a0,0x9
    1840:	00112e23          	sw	ra,28(sp)
    1844:	00812c23          	sw	s0,24(sp)
    1848:	01412423          	sw	s4,8(sp)
    184c:	0ff97913          	zext.b	s2,s2
    1850:	00058a93          	mv	s5,a1
    1854:	0094d493          	srl	s1,s1,0x9
    1858:	01f55993          	srl	s3,a0,0x1f
    185c:	18090663          	beqz	s2,19e8 <__mulsf3+0x1c4>
    1860:	0ff00793          	li	a5,255
    1864:	1af90263          	beq	s2,a5,1a08 <__mulsf3+0x1e4>
    1868:	00349493          	sll	s1,s1,0x3
    186c:	040007b7          	lui	a5,0x4000
    1870:	00f4e4b3          	or	s1,s1,a5
    1874:	f8190913          	add	s2,s2,-127
    1878:	00000a13          	li	s4,0
    187c:	017ad793          	srl	a5,s5,0x17
    1880:	009a9413          	sll	s0,s5,0x9
    1884:	0ff7f793          	zext.b	a5,a5
    1888:	00945413          	srl	s0,s0,0x9
    188c:	01fada93          	srl	s5,s5,0x1f
    1890:	18078c63          	beqz	a5,1a28 <__mulsf3+0x204>
    1894:	0ff00713          	li	a4,255
    1898:	1ae78863          	beq	a5,a4,1a48 <__mulsf3+0x224>
    189c:	00341413          	sll	s0,s0,0x3
    18a0:	04000737          	lui	a4,0x4000
    18a4:	00e46433          	or	s0,s0,a4
    18a8:	f8178793          	add	a5,a5,-127 # 3ffff81 <_stack_start+0x3ef7f81>
    18ac:	00000713          	li	a4,0
    18b0:	00f90933          	add	s2,s2,a5
    18b4:	002a1793          	sll	a5,s4,0x2
    18b8:	00e7e7b3          	or	a5,a5,a4
    18bc:	00a00693          	li	a3,10
    18c0:	0159c533          	xor	a0,s3,s5
    18c4:	00190613          	add	a2,s2,1
    18c8:	1ef6c463          	blt	a3,a5,1ab0 <__mulsf3+0x28c>
    18cc:	00200693          	li	a3,2
    18d0:	18f6cc63          	blt	a3,a5,1a68 <__mulsf3+0x244>
    18d4:	fff78793          	add	a5,a5,-1
    18d8:	00100693          	li	a3,1
    18dc:	1af6f863          	bgeu	a3,a5,1a8c <__mulsf3+0x268>
    18e0:	000108b7          	lui	a7,0x10
    18e4:	fff88813          	add	a6,a7,-1 # ffff <__DTOR_END__+0xde0b>
    18e8:	0104d713          	srl	a4,s1,0x10
    18ec:	01045793          	srl	a5,s0,0x10
    18f0:	010476b3          	and	a3,s0,a6
    18f4:	0104f4b3          	and	s1,s1,a6
    18f8:	029685b3          	mul	a1,a3,s1
    18fc:	02d706b3          	mul	a3,a4,a3
    1900:	0105d413          	srl	s0,a1,0x10
    1904:	02f70733          	mul	a4,a4,a5
    1908:	029787b3          	mul	a5,a5,s1
    190c:	00d787b3          	add	a5,a5,a3
    1910:	00f40433          	add	s0,s0,a5
    1914:	00d47463          	bgeu	s0,a3,191c <__mulsf3+0xf8>
    1918:	01170733          	add	a4,a4,a7
    191c:	010477b3          	and	a5,s0,a6
    1920:	01079793          	sll	a5,a5,0x10
    1924:	0105f5b3          	and	a1,a1,a6
    1928:	00b787b3          	add	a5,a5,a1
    192c:	00679693          	sll	a3,a5,0x6
    1930:	01045413          	srl	s0,s0,0x10
    1934:	00d036b3          	snez	a3,a3
    1938:	01a7d793          	srl	a5,a5,0x1a
    193c:	00e40433          	add	s0,s0,a4
    1940:	00f6e7b3          	or	a5,a3,a5
    1944:	00641413          	sll	s0,s0,0x6
    1948:	00f46433          	or	s0,s0,a5
    194c:	080007b7          	lui	a5,0x8000
    1950:	00f477b3          	and	a5,s0,a5
    1954:	16078e63          	beqz	a5,1ad0 <__mulsf3+0x2ac>
    1958:	00145793          	srl	a5,s0,0x1
    195c:	00147413          	and	s0,s0,1
    1960:	0087e433          	or	s0,a5,s0
    1964:	07f60713          	add	a4,a2,127
    1968:	16e05863          	blez	a4,1ad8 <__mulsf3+0x2b4>
    196c:	00747793          	and	a5,s0,7
    1970:	00078a63          	beqz	a5,1984 <__mulsf3+0x160>
    1974:	00f47793          	and	a5,s0,15
    1978:	00400693          	li	a3,4
    197c:	00d78463          	beq	a5,a3,1984 <__mulsf3+0x160>
    1980:	00440413          	add	s0,s0,4
    1984:	080007b7          	lui	a5,0x8000
    1988:	00f477b3          	and	a5,s0,a5
    198c:	00078a63          	beqz	a5,19a0 <__mulsf3+0x17c>
    1990:	f80007b7          	lui	a5,0xf8000
    1994:	fff78793          	add	a5,a5,-1 # f7ffffff <_stack_start+0xf7ef7fff>
    1998:	00f47433          	and	s0,s0,a5
    199c:	08060713          	add	a4,a2,128
    19a0:	0fe00793          	li	a5,254
    19a4:	1ae7c463          	blt	a5,a4,1b4c <__mulsf3+0x328>
    19a8:	00345793          	srl	a5,s0,0x3
    19ac:	01c12083          	lw	ra,28(sp)
    19b0:	01812403          	lw	s0,24(sp)
    19b4:	00979793          	sll	a5,a5,0x9
    19b8:	01771713          	sll	a4,a4,0x17
    19bc:	0097d793          	srl	a5,a5,0x9
    19c0:	00f76733          	or	a4,a4,a5
    19c4:	01f51513          	sll	a0,a0,0x1f
    19c8:	01412483          	lw	s1,20(sp)
    19cc:	01012903          	lw	s2,16(sp)
    19d0:	00c12983          	lw	s3,12(sp)
    19d4:	00812a03          	lw	s4,8(sp)
    19d8:	00412a83          	lw	s5,4(sp)
    19dc:	00a76533          	or	a0,a4,a0
    19e0:	02010113          	add	sp,sp,32
    19e4:	00008067          	ret
    19e8:	02048a63          	beqz	s1,1a1c <__mulsf3+0x1f8>
    19ec:	00048513          	mv	a0,s1
    19f0:	7a8000ef          	jal	2198 <__clzsi2>
    19f4:	ffb50793          	add	a5,a0,-5
    19f8:	f8a00913          	li	s2,-118
    19fc:	00f494b3          	sll	s1,s1,a5
    1a00:	40a90933          	sub	s2,s2,a0
    1a04:	e75ff06f          	j	1878 <__mulsf3+0x54>
    1a08:	0ff00913          	li	s2,255
    1a0c:	00300a13          	li	s4,3
    1a10:	e60496e3          	bnez	s1,187c <__mulsf3+0x58>
    1a14:	00200a13          	li	s4,2
    1a18:	e65ff06f          	j	187c <__mulsf3+0x58>
    1a1c:	00000913          	li	s2,0
    1a20:	00100a13          	li	s4,1
    1a24:	e59ff06f          	j	187c <__mulsf3+0x58>
    1a28:	02040a63          	beqz	s0,1a5c <__mulsf3+0x238>
    1a2c:	00040513          	mv	a0,s0
    1a30:	768000ef          	jal	2198 <__clzsi2>
    1a34:	ffb50793          	add	a5,a0,-5
    1a38:	00f41433          	sll	s0,s0,a5
    1a3c:	f8a00793          	li	a5,-118
    1a40:	40a787b3          	sub	a5,a5,a0
    1a44:	e69ff06f          	j	18ac <__mulsf3+0x88>
    1a48:	0ff00793          	li	a5,255
    1a4c:	00300713          	li	a4,3
    1a50:	e60410e3          	bnez	s0,18b0 <__mulsf3+0x8c>
    1a54:	00200713          	li	a4,2
    1a58:	e59ff06f          	j	18b0 <__mulsf3+0x8c>
    1a5c:	00000793          	li	a5,0
    1a60:	00100713          	li	a4,1
    1a64:	e4dff06f          	j	18b0 <__mulsf3+0x8c>
    1a68:	00100693          	li	a3,1
    1a6c:	00f697b3          	sll	a5,a3,a5
    1a70:	5307f693          	and	a3,a5,1328
    1a74:	04069863          	bnez	a3,1ac4 <__mulsf3+0x2a0>
    1a78:	2407f693          	and	a3,a5,576
    1a7c:	0c069063          	bnez	a3,1b3c <__mulsf3+0x318>
    1a80:	0887f793          	and	a5,a5,136
    1a84:	e4078ee3          	beqz	a5,18e0 <__mulsf3+0xbc>
    1a88:	000a8513          	mv	a0,s5
    1a8c:	00200793          	li	a5,2
    1a90:	0af70e63          	beq	a4,a5,1b4c <__mulsf3+0x328>
    1a94:	00300793          	li	a5,3
    1a98:	0af70263          	beq	a4,a5,1b3c <__mulsf3+0x318>
    1a9c:	00100793          	li	a5,1
    1aa0:	ecf712e3          	bne	a4,a5,1964 <__mulsf3+0x140>
    1aa4:	00000793          	li	a5,0
    1aa8:	00000713          	li	a4,0
    1aac:	f01ff06f          	j	19ac <__mulsf3+0x188>
    1ab0:	00f00693          	li	a3,15
    1ab4:	08d78463          	beq	a5,a3,1b3c <__mulsf3+0x318>
    1ab8:	00b00693          	li	a3,11
    1abc:	00098513          	mv	a0,s3
    1ac0:	fcd784e3          	beq	a5,a3,1a88 <__mulsf3+0x264>
    1ac4:	00048413          	mv	s0,s1
    1ac8:	000a0713          	mv	a4,s4
    1acc:	fc1ff06f          	j	1a8c <__mulsf3+0x268>
    1ad0:	00090613          	mv	a2,s2
    1ad4:	e91ff06f          	j	1964 <__mulsf3+0x140>
    1ad8:	00100693          	li	a3,1
    1adc:	00070c63          	beqz	a4,1af4 <__mulsf3+0x2d0>
    1ae0:	40e686b3          	sub	a3,a3,a4
    1ae4:	01b00593          	li	a1,27
    1ae8:	00000793          	li	a5,0
    1aec:	00000713          	li	a4,0
    1af0:	ead5cee3          	blt	a1,a3,19ac <__mulsf3+0x188>
    1af4:	09e60613          	add	a2,a2,158
    1af8:	00d456b3          	srl	a3,s0,a3
    1afc:	00c41433          	sll	s0,s0,a2
    1b00:	00803433          	snez	s0,s0
    1b04:	0086e7b3          	or	a5,a3,s0
    1b08:	0077f713          	and	a4,a5,7
    1b0c:	00070a63          	beqz	a4,1b20 <__mulsf3+0x2fc>
    1b10:	00f7f713          	and	a4,a5,15
    1b14:	00400693          	li	a3,4
    1b18:	00d70463          	beq	a4,a3,1b20 <__mulsf3+0x2fc>
    1b1c:	00478793          	add	a5,a5,4
    1b20:	04000737          	lui	a4,0x4000
    1b24:	00e7f733          	and	a4,a5,a4
    1b28:	0037d793          	srl	a5,a5,0x3
    1b2c:	e80700e3          	beqz	a4,19ac <__mulsf3+0x188>
    1b30:	00000793          	li	a5,0
    1b34:	00100713          	li	a4,1
    1b38:	e75ff06f          	j	19ac <__mulsf3+0x188>
    1b3c:	004007b7          	lui	a5,0x400
    1b40:	0ff00713          	li	a4,255
    1b44:	00000513          	li	a0,0
    1b48:	e65ff06f          	j	19ac <__mulsf3+0x188>
    1b4c:	00000793          	li	a5,0
    1b50:	0ff00713          	li	a4,255
    1b54:	e59ff06f          	j	19ac <__mulsf3+0x188>

00001b58 <__subsf3>:
    1b58:	00800737          	lui	a4,0x800
    1b5c:	ff010113          	add	sp,sp,-16
    1b60:	01755793          	srl	a5,a0,0x17
    1b64:	fff70713          	add	a4,a4,-1 # 7fffff <_stack_start+0x6f7fff>
    1b68:	0175d613          	srl	a2,a1,0x17
    1b6c:	00912223          	sw	s1,4(sp)
    1b70:	01212023          	sw	s2,0(sp)
    1b74:	00a776b3          	and	a3,a4,a0
    1b78:	0ff7f913          	zext.b	s2,a5
    1b7c:	00112623          	sw	ra,12(sp)
    1b80:	00b777b3          	and	a5,a4,a1
    1b84:	00812423          	sw	s0,8(sp)
    1b88:	0ff67613          	zext.b	a2,a2
    1b8c:	0ff00813          	li	a6,255
    1b90:	01f55493          	srl	s1,a0,0x1f
    1b94:	01f5d593          	srl	a1,a1,0x1f
    1b98:	00369513          	sll	a0,a3,0x3
    1b9c:	00379793          	sll	a5,a5,0x3
    1ba0:	09061e63          	bne	a2,a6,1c3c <__subsf3+0xe4>
    1ba4:	f0190713          	add	a4,s2,-255
    1ba8:	00078e63          	beqz	a5,1bc4 <__subsf3+0x6c>
    1bac:	00058693          	mv	a3,a1
    1bb0:	2ab49063          	bne	s1,a1,1e50 <__subsf3+0x2f8>
    1bb4:	1c070463          	beqz	a4,1d7c <__subsf3+0x224>
    1bb8:	0c091463          	bnez	s2,1c80 <__subsf3+0x128>
    1bbc:	0ff00913          	li	s2,255
    1bc0:	1700006f          	j	1d30 <__subsf3+0x1d8>
    1bc4:	0015c693          	xor	a3,a1,1
    1bc8:	28d49e63          	bne	s1,a3,1e64 <__subsf3+0x30c>
    1bcc:	1a070863          	beqz	a4,1d7c <__subsf3+0x224>
    1bd0:	fe0906e3          	beqz	s2,1bbc <__subsf3+0x64>
    1bd4:	0ff00913          	li	s2,255
    1bd8:	04000737          	lui	a4,0x4000
    1bdc:	00e7f733          	and	a4,a5,a4
    1be0:	40070463          	beqz	a4,1fe8 <__subsf3+0x490>
    1be4:	00190913          	add	s2,s2,1
    1be8:	0ff00713          	li	a4,255
    1bec:	00000413          	li	s0,0
    1bf0:	00e90a63          	beq	s2,a4,1c04 <__subsf3+0xac>
    1bf4:	0037d413          	srl	s0,a5,0x3
    1bf8:	1f8007b7          	lui	a5,0x1f800
    1bfc:	fff78793          	add	a5,a5,-1 # 1f7fffff <_stack_start+0x1f6f7fff>
    1c00:	00f47433          	and	s0,s0,a5
    1c04:	01791793          	sll	a5,s2,0x17
    1c08:	7f800737          	lui	a4,0x7f800
    1c0c:	00941413          	sll	s0,s0,0x9
    1c10:	00945413          	srl	s0,s0,0x9
    1c14:	00e7f7b3          	and	a5,a5,a4
    1c18:	00c12083          	lw	ra,12(sp)
    1c1c:	0087e7b3          	or	a5,a5,s0
    1c20:	00812403          	lw	s0,8(sp)
    1c24:	01f49513          	sll	a0,s1,0x1f
    1c28:	00012903          	lw	s2,0(sp)
    1c2c:	00412483          	lw	s1,4(sp)
    1c30:	00a7e533          	or	a0,a5,a0
    1c34:	01010113          	add	sp,sp,16
    1c38:	00008067          	ret
    1c3c:	0015c693          	xor	a3,a1,1
    1c40:	40c90733          	sub	a4,s2,a2
    1c44:	18d49a63          	bne	s1,a3,1dd8 <__subsf3+0x280>
    1c48:	0ce05663          	blez	a4,1d14 <__subsf3+0x1bc>
    1c4c:	02061e63          	bnez	a2,1c88 <__subsf3+0x130>
    1c50:	38078463          	beqz	a5,1fd8 <__subsf3+0x480>
    1c54:	fff70693          	add	a3,a4,-1 # 7f7fffff <_stack_start+0x7f6f7fff>
    1c58:	02069063          	bnez	a3,1c78 <__subsf3+0x120>
    1c5c:	00a787b3          	add	a5,a5,a0
    1c60:	04000737          	lui	a4,0x4000
    1c64:	00e7f733          	and	a4,a5,a4
    1c68:	00200913          	li	s2,2
    1c6c:	08071663          	bnez	a4,1cf8 <__subsf3+0x1a0>
    1c70:	00100913          	li	s2,1
    1c74:	0300006f          	j	1ca4 <__subsf3+0x14c>
    1c78:	03071063          	bne	a4,a6,1c98 <__subsf3+0x140>
    1c7c:	00050793          	mv	a5,a0
    1c80:	0ff00913          	li	s2,255
    1c84:	0200006f          	j	1ca4 <__subsf3+0x14c>
    1c88:	35090c63          	beq	s2,a6,1fe0 <__subsf3+0x488>
    1c8c:	040006b7          	lui	a3,0x4000
    1c90:	00d7e7b3          	or	a5,a5,a3
    1c94:	00070693          	mv	a3,a4
    1c98:	01b00713          	li	a4,27
    1c9c:	02d75263          	bge	a4,a3,1cc0 <__subsf3+0x168>
    1ca0:	00150793          	add	a5,a0,1
    1ca4:	0077f713          	and	a4,a5,7
    1ca8:	f20708e3          	beqz	a4,1bd8 <__subsf3+0x80>
    1cac:	00f7f713          	and	a4,a5,15
    1cb0:	00400693          	li	a3,4
    1cb4:	f2d702e3          	beq	a4,a3,1bd8 <__subsf3+0x80>
    1cb8:	00478793          	add	a5,a5,4
    1cbc:	f1dff06f          	j	1bd8 <__subsf3+0x80>
    1cc0:	02000713          	li	a4,32
    1cc4:	40d70733          	sub	a4,a4,a3
    1cc8:	00e79733          	sll	a4,a5,a4
    1ccc:	00d7d633          	srl	a2,a5,a3
    1cd0:	00e03733          	snez	a4,a4
    1cd4:	00e667b3          	or	a5,a2,a4
    1cd8:	00a787b3          	add	a5,a5,a0
    1cdc:	04000737          	lui	a4,0x4000
    1ce0:	00e7f733          	and	a4,a5,a4
    1ce4:	fc0700e3          	beqz	a4,1ca4 <__subsf3+0x14c>
    1ce8:	00190913          	add	s2,s2,1
    1cec:	0ff00713          	li	a4,255
    1cf0:	00000413          	li	s0,0
    1cf4:	f0e908e3          	beq	s2,a4,1c04 <__subsf3+0xac>
    1cf8:	7e000737          	lui	a4,0x7e000
    1cfc:	0017f693          	and	a3,a5,1
    1d00:	fff70713          	add	a4,a4,-1 # 7dffffff <_stack_start+0x7def7fff>
    1d04:	0017d793          	srl	a5,a5,0x1
    1d08:	00e7f7b3          	and	a5,a5,a4
    1d0c:	00d7e7b3          	or	a5,a5,a3
    1d10:	f95ff06f          	j	1ca4 <__subsf3+0x14c>
    1d14:	06070463          	beqz	a4,1d7c <__subsf3+0x224>
    1d18:	412606b3          	sub	a3,a2,s2
    1d1c:	00090863          	beqz	s2,1d2c <__subsf3+0x1d4>
    1d20:	04000737          	lui	a4,0x4000
    1d24:	00e56533          	or	a0,a0,a4
    1d28:	01c0006f          	j	1d44 <__subsf3+0x1ec>
    1d2c:	00068913          	mv	s2,a3
    1d30:	f6050ae3          	beqz	a0,1ca4 <__subsf3+0x14c>
    1d34:	fff90693          	add	a3,s2,-1
    1d38:	f20682e3          	beqz	a3,1c5c <__subsf3+0x104>
    1d3c:	0ff00713          	li	a4,255
    1d40:	f6e902e3          	beq	s2,a4,1ca4 <__subsf3+0x14c>
    1d44:	01b00713          	li	a4,27
    1d48:	00d75863          	bge	a4,a3,1d58 <__subsf3+0x200>
    1d4c:	00178793          	add	a5,a5,1
    1d50:	00060913          	mv	s2,a2
    1d54:	f51ff06f          	j	1ca4 <__subsf3+0x14c>
    1d58:	02000713          	li	a4,32
    1d5c:	40d70733          	sub	a4,a4,a3
    1d60:	00e51733          	sll	a4,a0,a4
    1d64:	00d555b3          	srl	a1,a0,a3
    1d68:	00e03733          	snez	a4,a4
    1d6c:	00e5e733          	or	a4,a1,a4
    1d70:	00e787b3          	add	a5,a5,a4
    1d74:	00060913          	mv	s2,a2
    1d78:	f65ff06f          	j	1cdc <__subsf3+0x184>
    1d7c:	00190713          	add	a4,s2,1
    1d80:	0fe77693          	and	a3,a4,254
    1d84:	02069e63          	bnez	a3,1dc0 <__subsf3+0x268>
    1d88:	02091663          	bnez	s2,1db4 <__subsf3+0x25c>
    1d8c:	f0050ce3          	beqz	a0,1ca4 <__subsf3+0x14c>
    1d90:	24078863          	beqz	a5,1fe0 <__subsf3+0x488>
    1d94:	00a787b3          	add	a5,a5,a0
    1d98:	04000737          	lui	a4,0x4000
    1d9c:	00e7f733          	and	a4,a5,a4
    1da0:	f00702e3          	beqz	a4,1ca4 <__subsf3+0x14c>
    1da4:	fc000737          	lui	a4,0xfc000
    1da8:	fff70713          	add	a4,a4,-1 # fbffffff <_stack_start+0xfbef7fff>
    1dac:	00e7f7b3          	and	a5,a5,a4
    1db0:	ec1ff06f          	j	1c70 <__subsf3+0x118>
    1db4:	ec0506e3          	beqz	a0,1c80 <__subsf3+0x128>
    1db8:	ec0782e3          	beqz	a5,1c7c <__subsf3+0x124>
    1dbc:	1980006f          	j	1f54 <__subsf3+0x3fc>
    1dc0:	0ff00693          	li	a3,255
    1dc4:	22d70e63          	beq	a4,a3,2000 <_stack_len>
    1dc8:	00f507b3          	add	a5,a0,a5
    1dcc:	0017d793          	srl	a5,a5,0x1
    1dd0:	00070913          	mv	s2,a4
    1dd4:	ed1ff06f          	j	1ca4 <__subsf3+0x14c>
    1dd8:	0ae05063          	blez	a4,1e78 <__subsf3+0x320>
    1ddc:	06061063          	bnez	a2,1e3c <__subsf3+0x2e4>
    1de0:	1e078c63          	beqz	a5,1fd8 <__subsf3+0x480>
    1de4:	fff70693          	add	a3,a4,-1
    1de8:	00069863          	bnez	a3,1df8 <__subsf3+0x2a0>
    1dec:	40f507b3          	sub	a5,a0,a5
    1df0:	00100913          	li	s2,1
    1df4:	0300006f          	j	1e24 <__subsf3+0x2cc>
    1df8:	e90702e3          	beq	a4,a6,1c7c <__subsf3+0x124>
    1dfc:	01b00613          	li	a2,27
    1e00:	00100713          	li	a4,1
    1e04:	00d64e63          	blt	a2,a3,1e20 <__subsf3+0x2c8>
    1e08:	02000713          	li	a4,32
    1e0c:	40d70733          	sub	a4,a4,a3
    1e10:	00e79733          	sll	a4,a5,a4
    1e14:	00d7d633          	srl	a2,a5,a3
    1e18:	00e03733          	snez	a4,a4
    1e1c:	00e66733          	or	a4,a2,a4
    1e20:	40e507b3          	sub	a5,a0,a4
    1e24:	04000437          	lui	s0,0x4000
    1e28:	0087f733          	and	a4,a5,s0
    1e2c:	e6070ce3          	beqz	a4,1ca4 <__subsf3+0x14c>
    1e30:	fff40413          	add	s0,s0,-1 # 3ffffff <_stack_start+0x3ef7fff>
    1e34:	0087f433          	and	s0,a5,s0
    1e38:	1440006f          	j	1f7c <__subsf3+0x424>
    1e3c:	1b090263          	beq	s2,a6,1fe0 <__subsf3+0x488>
    1e40:	040006b7          	lui	a3,0x4000
    1e44:	00d7e7b3          	or	a5,a5,a3
    1e48:	00070693          	mv	a3,a4
    1e4c:	fb1ff06f          	j	1dfc <__subsf3+0x2a4>
    1e50:	0a070663          	beqz	a4,1efc <__subsf3+0x3a4>
    1e54:	04090663          	beqz	s2,1ea0 <__subsf3+0x348>
    1e58:	0ff00913          	li	s2,255
    1e5c:	00058493          	mv	s1,a1
    1e60:	e45ff06f          	j	1ca4 <__subsf3+0x14c>
    1e64:	08070c63          	beqz	a4,1efc <__subsf3+0x3a4>
    1e68:	04090263          	beqz	s2,1eac <__subsf3+0x354>
    1e6c:	0ff00913          	li	s2,255
    1e70:	00068493          	mv	s1,a3
    1e74:	d65ff06f          	j	1bd8 <__subsf3+0x80>
    1e78:	08070263          	beqz	a4,1efc <__subsf3+0x3a4>
    1e7c:	412605b3          	sub	a1,a2,s2
    1e80:	06091663          	bnez	s2,1eec <__subsf3+0x394>
    1e84:	00068493          	mv	s1,a3
    1e88:	00058913          	mv	s2,a1
    1e8c:	e0050ce3          	beqz	a0,1ca4 <__subsf3+0x14c>
    1e90:	fff90593          	add	a1,s2,-1
    1e94:	02059063          	bnez	a1,1eb4 <__subsf3+0x35c>
    1e98:	40a787b3          	sub	a5,a5,a0
    1e9c:	f55ff06f          	j	1df0 <__subsf3+0x298>
    1ea0:	00058493          	mv	s1,a1
    1ea4:	0ff00913          	li	s2,255
    1ea8:	fe5ff06f          	j	1e8c <__subsf3+0x334>
    1eac:	00068493          	mv	s1,a3
    1eb0:	ff5ff06f          	j	1ea4 <__subsf3+0x34c>
    1eb4:	0ff00713          	li	a4,255
    1eb8:	dee906e3          	beq	s2,a4,1ca4 <__subsf3+0x14c>
    1ebc:	01b00693          	li	a3,27
    1ec0:	00100713          	li	a4,1
    1ec4:	00b6ce63          	blt	a3,a1,1ee0 <__subsf3+0x388>
    1ec8:	02000713          	li	a4,32
    1ecc:	40b70733          	sub	a4,a4,a1
    1ed0:	00e51733          	sll	a4,a0,a4
    1ed4:	00b556b3          	srl	a3,a0,a1
    1ed8:	00e03733          	snez	a4,a4
    1edc:	00e6e733          	or	a4,a3,a4
    1ee0:	40e787b3          	sub	a5,a5,a4
    1ee4:	00060913          	mv	s2,a2
    1ee8:	f3dff06f          	j	1e24 <__subsf3+0x2cc>
    1eec:	04000737          	lui	a4,0x4000
    1ef0:	00e56533          	or	a0,a0,a4
    1ef4:	00068493          	mv	s1,a3
    1ef8:	fc5ff06f          	j	1ebc <__subsf3+0x364>
    1efc:	00190713          	add	a4,s2,1
    1f00:	0fe77713          	and	a4,a4,254
    1f04:	06071063          	bnez	a4,1f64 <__subsf3+0x40c>
    1f08:	04091063          	bnez	s2,1f48 <__subsf3+0x3f0>
    1f0c:	00051863          	bnez	a0,1f1c <__subsf3+0x3c4>
    1f10:	0e078e63          	beqz	a5,200c <_stack_len+0xc>
    1f14:	00068493          	mv	s1,a3
    1f18:	d8dff06f          	j	1ca4 <__subsf3+0x14c>
    1f1c:	0c078263          	beqz	a5,1fe0 <__subsf3+0x488>
    1f20:	40f50433          	sub	s0,a0,a5
    1f24:	04000737          	lui	a4,0x4000
    1f28:	00e47733          	and	a4,s0,a4
    1f2c:	00070663          	beqz	a4,1f38 <__subsf3+0x3e0>
    1f30:	40a787b3          	sub	a5,a5,a0
    1f34:	fe1ff06f          	j	1f14 <__subsf3+0x3bc>
    1f38:	00040793          	mv	a5,s0
    1f3c:	d60414e3          	bnez	s0,1ca4 <__subsf3+0x14c>
    1f40:	00000493          	li	s1,0
    1f44:	cc1ff06f          	j	1c04 <__subsf3+0xac>
    1f48:	e60518e3          	bnez	a0,1db8 <__subsf3+0x260>
    1f4c:	00068493          	mv	s1,a3
    1f50:	d20798e3          	bnez	a5,1c80 <__subsf3+0x128>
    1f54:	00000493          	li	s1,0
    1f58:	0ff00913          	li	s2,255
    1f5c:	00400437          	lui	s0,0x400
    1f60:	ca5ff06f          	j	1c04 <__subsf3+0xac>
    1f64:	40f50433          	sub	s0,a0,a5
    1f68:	04000737          	lui	a4,0x4000
    1f6c:	00e47733          	and	a4,s0,a4
    1f70:	04070463          	beqz	a4,1fb8 <__subsf3+0x460>
    1f74:	40a78433          	sub	s0,a5,a0
    1f78:	00068493          	mv	s1,a3
    1f7c:	00040513          	mv	a0,s0
    1f80:	218000ef          	jal	2198 <__clzsi2>
    1f84:	ffb50513          	add	a0,a0,-5
    1f88:	00a41433          	sll	s0,s0,a0
    1f8c:	03254c63          	blt	a0,s2,1fc4 <__subsf3+0x46c>
    1f90:	41250533          	sub	a0,a0,s2
    1f94:	00150513          	add	a0,a0,1
    1f98:	02000713          	li	a4,32
    1f9c:	40a70733          	sub	a4,a4,a0
    1fa0:	00a457b3          	srl	a5,s0,a0
    1fa4:	00e41433          	sll	s0,s0,a4
    1fa8:	00803433          	snez	s0,s0
    1fac:	0087e7b3          	or	a5,a5,s0
    1fb0:	00000913          	li	s2,0
    1fb4:	cf1ff06f          	j	1ca4 <__subsf3+0x14c>
    1fb8:	fc0412e3          	bnez	s0,1f7c <__subsf3+0x424>
    1fbc:	00000913          	li	s2,0
    1fc0:	f81ff06f          	j	1f40 <__subsf3+0x3e8>
    1fc4:	fc0007b7          	lui	a5,0xfc000
    1fc8:	fff78793          	add	a5,a5,-1 # fbffffff <_stack_start+0xfbef7fff>
    1fcc:	40a90933          	sub	s2,s2,a0
    1fd0:	00f477b3          	and	a5,s0,a5
    1fd4:	cd1ff06f          	j	1ca4 <__subsf3+0x14c>
    1fd8:	00050793          	mv	a5,a0
    1fdc:	df5ff06f          	j	1dd0 <__subsf3+0x278>
    1fe0:	00050793          	mv	a5,a0
    1fe4:	cc1ff06f          	j	1ca4 <__subsf3+0x14c>
    1fe8:	0037d413          	srl	s0,a5,0x3
    1fec:	0ff00793          	li	a5,255
    1ff0:	c0f91ae3          	bne	s2,a5,1c04 <__subsf3+0xac>
    1ff4:	c00408e3          	beqz	s0,1c04 <__subsf3+0xac>
    1ff8:	00400437          	lui	s0,0x400
    1ffc:	f45ff06f          	j	1f40 <__subsf3+0x3e8>
    2000:	0ff00913          	li	s2,255
    2004:	00000413          	li	s0,0
    2008:	bfdff06f          	j	1c04 <__subsf3+0xac>
    200c:	00000413          	li	s0,0
    2010:	f31ff06f          	j	1f40 <__subsf3+0x3e8>

00002014 <__fixsfsi>:
    2014:	00800637          	lui	a2,0x800
    2018:	01755713          	srl	a4,a0,0x17
    201c:	fff60793          	add	a5,a2,-1 # 7fffff <_stack_start+0x6f7fff>
    2020:	0ff77713          	zext.b	a4,a4
    2024:	07e00593          	li	a1,126
    2028:	00a7f7b3          	and	a5,a5,a0
    202c:	01f55693          	srl	a3,a0,0x1f
    2030:	04e5d663          	bge	a1,a4,207c <__fixsfsi+0x68>
    2034:	09d00593          	li	a1,157
    2038:	00e5da63          	bge	a1,a4,204c <__fixsfsi+0x38>
    203c:	80000537          	lui	a0,0x80000
    2040:	fff54513          	not	a0,a0
    2044:	00a68533          	add	a0,a3,a0
    2048:	00008067          	ret
    204c:	00c7e533          	or	a0,a5,a2
    2050:	09500793          	li	a5,149
    2054:	00e7dc63          	bge	a5,a4,206c <__fixsfsi+0x58>
    2058:	f6a70713          	add	a4,a4,-150 # 3ffff6a <_stack_start+0x3ef7f6a>
    205c:	00e51533          	sll	a0,a0,a4
    2060:	02068063          	beqz	a3,2080 <__fixsfsi+0x6c>
    2064:	40a00533          	neg	a0,a0
    2068:	00008067          	ret
    206c:	09600793          	li	a5,150
    2070:	40e787b3          	sub	a5,a5,a4
    2074:	00f55533          	srl	a0,a0,a5
    2078:	fe9ff06f          	j	2060 <__fixsfsi+0x4c>
    207c:	00000513          	li	a0,0
    2080:	00008067          	ret

00002084 <__floatsisf>:
    2084:	ff010113          	add	sp,sp,-16
    2088:	00112623          	sw	ra,12(sp)
    208c:	00812423          	sw	s0,8(sp)
    2090:	00912223          	sw	s1,4(sp)
    2094:	00050793          	mv	a5,a0
    2098:	0e050663          	beqz	a0,2184 <__floatsisf+0x100>
    209c:	41f55713          	sra	a4,a0,0x1f
    20a0:	00a74433          	xor	s0,a4,a0
    20a4:	40e40433          	sub	s0,s0,a4
    20a8:	01f55493          	srl	s1,a0,0x1f
    20ac:	00040513          	mv	a0,s0
    20b0:	0e8000ef          	jal	2198 <__clzsi2>
    20b4:	09e00793          	li	a5,158
    20b8:	40a787b3          	sub	a5,a5,a0
    20bc:	09600713          	li	a4,150
    20c0:	04f74063          	blt	a4,a5,2100 <__floatsisf+0x7c>
    20c4:	00800713          	li	a4,8
    20c8:	0ce50463          	beq	a0,a4,2190 <__floatsisf+0x10c>
    20cc:	ff850513          	add	a0,a0,-8 # 7ffffff8 <_stack_start+0x7fef7ff8>
    20d0:	00a41433          	sll	s0,s0,a0
    20d4:	00941413          	sll	s0,s0,0x9
    20d8:	00945413          	srl	s0,s0,0x9
    20dc:	01779793          	sll	a5,a5,0x17
    20e0:	00c12083          	lw	ra,12(sp)
    20e4:	0087e7b3          	or	a5,a5,s0
    20e8:	00812403          	lw	s0,8(sp)
    20ec:	01f49513          	sll	a0,s1,0x1f
    20f0:	00a7e533          	or	a0,a5,a0
    20f4:	00412483          	lw	s1,4(sp)
    20f8:	01010113          	add	sp,sp,16
    20fc:	00008067          	ret
    2100:	09900713          	li	a4,153
    2104:	06f75663          	bge	a4,a5,2170 <__floatsisf+0xec>
    2108:	00500713          	li	a4,5
    210c:	40a70733          	sub	a4,a4,a0
    2110:	01b50693          	add	a3,a0,27
    2114:	00e45733          	srl	a4,s0,a4
    2118:	00d41433          	sll	s0,s0,a3
    211c:	00803433          	snez	s0,s0
    2120:	00876433          	or	s0,a4,s0
    2124:	fc000737          	lui	a4,0xfc000
    2128:	fff70713          	add	a4,a4,-1 # fbffffff <_stack_start+0xfbef7fff>
    212c:	00747693          	and	a3,s0,7
    2130:	00e47733          	and	a4,s0,a4
    2134:	00068a63          	beqz	a3,2148 <__floatsisf+0xc4>
    2138:	00f47413          	and	s0,s0,15
    213c:	00400693          	li	a3,4
    2140:	00d40463          	beq	s0,a3,2148 <__floatsisf+0xc4>
    2144:	00470713          	add	a4,a4,4
    2148:	040006b7          	lui	a3,0x4000
    214c:	00d776b3          	and	a3,a4,a3
    2150:	00068c63          	beqz	a3,2168 <__floatsisf+0xe4>
    2154:	fc0007b7          	lui	a5,0xfc000
    2158:	fff78793          	add	a5,a5,-1 # fbffffff <_stack_start+0xfbef7fff>
    215c:	00f77733          	and	a4,a4,a5
    2160:	09f00793          	li	a5,159
    2164:	40a787b3          	sub	a5,a5,a0
    2168:	00375413          	srl	s0,a4,0x3
    216c:	f69ff06f          	j	20d4 <__floatsisf+0x50>
    2170:	00500693          	li	a3,5
    2174:	ffb50713          	add	a4,a0,-5
    2178:	fad506e3          	beq	a0,a3,2124 <__floatsisf+0xa0>
    217c:	00e41433          	sll	s0,s0,a4
    2180:	fa5ff06f          	j	2124 <__floatsisf+0xa0>
    2184:	00000493          	li	s1,0
    2188:	00000413          	li	s0,0
    218c:	f49ff06f          	j	20d4 <__floatsisf+0x50>
    2190:	09600793          	li	a5,150
    2194:	f41ff06f          	j	20d4 <__floatsisf+0x50>

00002198 <__clzsi2>:
    2198:	000107b7          	lui	a5,0x10
    219c:	02f57a63          	bgeu	a0,a5,21d0 <__clzsi2+0x38>
    21a0:	10053793          	sltiu	a5,a0,256
    21a4:	0017c793          	xor	a5,a5,1
    21a8:	00379793          	sll	a5,a5,0x3
    21ac:	00100737          	lui	a4,0x100
    21b0:	02000693          	li	a3,32
    21b4:	40f686b3          	sub	a3,a3,a5
    21b8:	00f55533          	srl	a0,a0,a5
    21bc:	09070793          	add	a5,a4,144 # 100090 <__clz_tab>
    21c0:	00a787b3          	add	a5,a5,a0
    21c4:	0007c503          	lbu	a0,0(a5) # 10000 <__DTOR_END__+0xde0c>
    21c8:	40a68533          	sub	a0,a3,a0
    21cc:	00008067          	ret
    21d0:	01000737          	lui	a4,0x1000
    21d4:	01000793          	li	a5,16
    21d8:	fce56ae3          	bltu	a0,a4,21ac <__clzsi2+0x14>
    21dc:	01800793          	li	a5,24
    21e0:	fcdff06f          	j	21ac <__clzsi2+0x14>

000021e4 <__CTOR_LIST__>:
	...

000021ec <__CTOR_END__>:
	...

Disassembly of section .text.__libc_init_array:

000021f4 <__libc_init_array>:
    21f4:	ff010113          	add	sp,sp,-16
    21f8:	00812423          	sw	s0,8(sp)
    21fc:	001007b7          	lui	a5,0x100
    2200:	00100437          	lui	s0,0x100
    2204:	01212023          	sw	s2,0(sp)
    2208:	00078793          	mv	a5,a5
    220c:	00040713          	mv	a4,s0
    2210:	00112623          	sw	ra,12(sp)
    2214:	00912223          	sw	s1,4(sp)
    2218:	40e78933          	sub	s2,a5,a4
    221c:	02e78263          	beq	a5,a4,2240 <__libc_init_array+0x4c>
    2220:	40295913          	sra	s2,s2,0x2
    2224:	00040413          	mv	s0,s0
    2228:	00000493          	li	s1,0
    222c:	00042783          	lw	a5,0(s0) # 100000 <__init_array_end>
    2230:	00148493          	add	s1,s1,1
    2234:	00440413          	add	s0,s0,4
    2238:	000780e7          	jalr	a5 # 100000 <__init_array_end>
    223c:	ff24e8e3          	bltu	s1,s2,222c <__libc_init_array+0x38>
    2240:	00100437          	lui	s0,0x100
    2244:	001007b7          	lui	a5,0x100
    2248:	00078793          	mv	a5,a5
    224c:	00040713          	mv	a4,s0
    2250:	40e78933          	sub	s2,a5,a4
    2254:	40295913          	sra	s2,s2,0x2
    2258:	02e78063          	beq	a5,a4,2278 <__libc_init_array+0x84>
    225c:	00040413          	mv	s0,s0
    2260:	00000493          	li	s1,0
    2264:	00042783          	lw	a5,0(s0) # 100000 <__init_array_end>
    2268:	00148493          	add	s1,s1,1
    226c:	00440413          	add	s0,s0,4
    2270:	000780e7          	jalr	a5 # 100000 <__init_array_end>
    2274:	ff24e8e3          	bltu	s1,s2,2264 <__libc_init_array+0x70>
    2278:	00c12083          	lw	ra,12(sp)
    227c:	00812403          	lw	s0,8(sp)
    2280:	00412483          	lw	s1,4(sp)
    2284:	00012903          	lw	s2,0(sp)
    2288:	01010113          	add	sp,sp,16
    228c:	00008067          	ret
